ccopy_reg
_reconstructor
p0
(c__main__
DataSkeleton
p1
c__builtin__
object
p2
Ntp3
Rp4
(dp5
S'_bones'
p6
(lp7
g0
(c__main__
DataBone
p8
g2
Ntp9
Rp10
(dp11
S'_parentId'
p12
I-1
sS'_id'
p13
I0
sS'_matrix'
p14
(lp15
F1.0
aF0.0
aF-0.0
aF0.0
aF-0.0
aF2.220446049250313e-16
aF-1.0
aF0.0
aF0.0
aF1.0
aF2.220446049250313e-16
aF0.0
aF0.0
aF0.0
aF0.0
aF1.0
asS'_name'
p16
S'BaseSkeleton'
p17
sbag0
(g8
g2
Ntp18
Rp19
(dp20
g12
I0
sg13
I1
sg14
(lp21
F0.0
aF-2.6631610908689424e-07
aF0.9999999999999645
aF0.0
aF-1.46473859966314e-06
aF0.9999999999988918
aF2.663161090866086e-07
aF0.0
aF-0.9999999999989273
aF-1.4647385996630884e-06
aF-3.9013237085328e-13
aF0.0
aF0.0
aF0.0
aF98.01000213623047
aF1.0
asg16
VHips
p22
sbag0
(g8
g2
Ntp23
Rp24
(dp25
g12
I1
sg13
I2
sg14
(lp26
F0.9988898514002653
aF-0.047106950329316916
aF4.7656708902737337e-07
aF0.0
aF0.04710695032995617
aF0.9988898513993206
aF-1.433257923167031e-06
aF0.0
aF-4.085216189446305e-07
aF1.4541164160822728e-06
aF0.9999999999988594
aF0.0
aF7.2397990226745605
aF-0.013531177304685116
aF-0.002410888671875
aF1.0
asg16
VSpine
p27
sbag0
(g8
g2
Ntp28
Rp29
(dp30
g12
I2
sg13
I3
sg14
(lp31
F0.9944694894853479
aF-0.10502530777500048
aF-4.815232985195924e-07
aF0.0
aF0.10502530777565204
aF0.9944694894840685
aF1.6246740535511003e-06
aF0.0
aF3.082283730888862e-07
aF-1.666261107877018e-06
aF0.9999999999985643
aF0.0
aF17.033470153808594
aF-0.011990547180175781
aF-2.259388566017151e-05
aF1.0
asg16
VSpine1
p32
sbag0
(g8
g2
Ntp33
Rp34
(dp35
g12
I3
sg13
I4
sg14
(lp36
F0.9978829773241809
aF0.0650341783766978
aF4.5855834330579215e-07
aF0.0
aF-0.06503417837480012
aF0.9978829773187535
aF-3.359878418826342e-06
aF0.0
aF-6.760945779030606e-07
aF3.32294391105766e-06
aF0.9999999999942505
aF0.0
aF15.128837585449219
aF-0.010683059692382812
aF-2.42539681494236e-06
aF1.0
asg16
VSpine2
p37
sbag0
(g8
g2
Ntp38
Rp39
(dp40
g12
I4
sg13
I5
sg14
(lp41
F0.9463037826360232
aF0.32327875118657806
aF-2.4648570362686293e-08
aF0.0
aF-0.3232787511865776
aF0.9463037826360234
aF2.168402822681328e-08
aF0.0
aF3.033502093663893e-08
aF-1.2551318888435997e-08
aF0.9999999999999994
aF0.0
aF21.197662353515625
aF0.7458667755126953
aF3.543682396411896e-07
aF1.0
asg16
VNeck
p42
sbag0
(g8
g2
Ntp43
Rp44
(dp45
g12
I5
sg13
I6
sg14
(lp46
F0.9902680502095422
aF-0.1391732328222337
aF-0.0
aF0.0
aF0.1391732328222337
aF0.9902680502095422
aF0.0
aF0.0
aF0.0
aF-0.0
aF1.0
aF0.0
aF5.0644989013671875
aF-0.00408935546875
aF0.0001261741854250431
aF1.0
asg16
VNeck1
p47
sbag0
(g8
g2
Ntp48
Rp49
(dp50
g12
I6
sg13
I7
sg14
(lp51
F0.999985497798356
aF0.0053855540808741675
aF4.6480961515441053e-07
aF0.0
aF-0.0053855540842633
aF0.9999854977693573
aF7.627332820063688e-06
aF0.0
aF-4.237254609828872e-07
aF-7.629725464266427e-06
aF0.9999999999708039
aF0.0
aF5.3660888671875
aF6.4849853515625e-05
aF-1.9953586161136627e-07
aF1.0
asg16
VHead
p52
sbag0
(g8
g2
Ntp53
Rp54
(dp55
g12
I4
sg13
I8
sg14
(lp56
F-0.15603777610834801
aF-0.02750544331485538
aF0.9873680484070844
aF0.0
aF-0.0007873592431912164
aF-0.999608548103381
aF-0.027970860599311035
aF0.0
aF0.9877507744834884
aF-0.005141923630133032
aF0.155955019568627
aF0.0
aF15.596755981445312
aF-2.827016830444336
aF3.0582377910614014
aF1.0
asg16
VLeftClavicle
p57
sbag0
(g8
g2
Ntp58
Rp59
(dp60
g12
I8
sg13
I9
sg14
(lp61
F0.88676386419004
aF-0.0238045084763316
aF-0.4616093527463978
aF0.0
aF0.05041142128599831
aF0.9976964163670087
aF0.04539196143666802
aF0.0
aF0.4594654636657991
aF-0.06352233467760068
aF0.8859211485714703
aF0.0
aF15.071186065673828
aF7.62939453125e-06
aF-0.0001220703125
aF1.0
asg16
VLeftArm
p62
sbag0
(g8
g2
Ntp63
Rp64
(dp65
g12
I9
sg13
I10
sg14
(lp66
F0.9228477115975571
aF-0.3851650311219222
aF-2.9590728604366805e-08
aF0.0
aF0.3851650311218819
aF0.9228477115974195
aF5.346023318250016e-07
aF0.0
aF-1.7860238759818872e-07
aF-5.047538524432406e-07
aF0.9999999999998567
aF0.0
aF29.652864456176758
aF-1.33514404296875e-05
aF0.000213623046875
aF1.0
asg16
VLeftForeArm
p67
sbag0
(g8
g2
Ntp68
Rp69
(dp70
g12
I10
sg13
I11
sg14
(lp71
F0.9859630581845787
aF0.11278146838596922
aF-0.123114049055059
aF0.0
aF-0.12336332450657121
aF-0.004792989164463836
aF-0.9923501175694741
aF0.0
aF-0.11250879442163535
aF0.9936083743171964
aF0.009187387175996618
aF0.0
aF27.267959594726562
aF0.00022506712411995977
aF-0.0003509521484375
aF1.0
asg16
VLeftHand
p72
sbag0
(g8
g2
Ntp73
Rp74
(dp75
g12
I11
sg13
I12
sg14
(lp76
F0.9959699277233068
aF-0.03665435408012222
aF-0.08185573527737659
aF0.0
aF0.04518093260520747
aF0.993459040144904
aF0.1048704862355923
aF0.0
aF0.07747635564603299
aF-0.10814616260927376
aF0.991111347235724
aF0.0
aF1.1402320861816406
aF-0.008331298828125
aF-2.4251937866210938
aF1.0
asg16
VLeftHandIndex
p77
sbag0
(g8
g2
Ntp78
Rp79
(dp80
g12
I12
sg13
I13
sg14
(lp81
F0.9944731422926039
aF0.10499128161219524
aF6.641018212317737e-06
aF0.0
aF-0.104991281614866
aF0.9944731423144946
aF5.385558456992235e-08
aF0.0
aF-6.598659882925437e-06
aF-7.508069457561613e-07
aF0.999999999977947
aF0.0
aF7.625308513641357
aF-0.0001373291015625
aF-3.0517578125e-05
aF1.0
asg16
VLeftHandIndex1
p82
sbag0
(g8
g2
Ntp83
Rp84
(dp85
g12
I13
sg13
I14
sg14
(lp86
F0.9780493931096603
aF0.20837318598509952
aF4.942528415829702e-07
aF0.0
aF-0.2083731859848615
aF0.9780493931097117
aF-4.927618905899277e-07
aF0.0
aF-5.860820568272388e-07
aF3.7895642875633315e-07
aF0.9999999999997564
aF0.0
aF4.726055145263672
aF0.0005035400390625
aF0.000186920166015625
aF1.0
asg16
VLeftHandIndex2
p87
sbag0
(g8
g2
Ntp88
Rp89
(dp90
g12
I14
sg13
I15
sg14
(lp91
F0.9944728574353146
aF0.10499397971203768
aF-6.976295162067677e-06
aF0.0
aF-0.10499397971435127
aF0.9944728574595393
aF3.477981776578551e-08
aF0.0
aF6.941387855783491e-06
aF6.978814079728404e-07
aF0.999999999975665
aF0.0
aF2.7680625915527344
aF-0.000335693359375
aF-0.00012683868408203125
aF1.0
asg16
VLeftHandIndex3
p92
sbag0
(g8
g2
Ntp93
Rp94
(dp95
g12
I11
sg13
I16
sg14
(lp96
F0.9982057767771157
aF-0.05262271833439368
aF-0.028567056619365542
aF0.0
aF0.05173643292743172
aF0.9981817842420937
aF-0.030924875196670133
aF0.0
aF0.030142466543863863
aF0.029391431458705517
aF0.9991133350417131
aF0.0
aF1.1787452697753906
aF-0.29400634765625
aF-0.20842552185058594
aF1.0
asg16
VLeftHandMiddle
p97
sbag0
(g8
g2
Ntp98
Rp99
(dp100
g12
I16
sg13
I17
sg14
(lp101
F0.9892723412111307
aF0.14608297257453276
aF6.199719322520238e-06
aF0.0
aF-0.14608297257712058
aF0.9892723412301746
aF-3.57962608985312e-08
aF0.0
aF-6.138440073358658e-06
aF-8.70261176951874e-07
aF0.9999999999807812
aF0.0
aF7.8725433349609375
aF-0.00030517578125
aF-0.0001316070556640625
aF1.0
asg16
VLeftHandMiddle1
p102
sbag0
(g8
g2
Ntp103
Rp104
(dp105
g12
I17
sg13
I18
sg14
(lp106
F0.9847257857791752
aF0.17411205475870145
aF5.320042712618491e-08
aF0.0
aF-0.17411205475870584
aF0.9847257857791716
aF9.293591323368787e-08
aF0.0
aF-3.620657390778602e-08
aF-1.0077923788095037e-07
aF0.9999999999999942
aF0.0
aF5.1855926513671875
aF0.000274658203125
aF4.76837158203125e-05
aF1.0
asg16
VLeftHandMiddle2
p107
sbag0
(g8
g2
Ntp108
Rp109
(dp110
g12
I18
sg13
I19
sg14
(lp111
F0.9742639529710954
aF0.22541018147059483
aF-5.525279546868363e-06
aF0.0
aF-0.22541018147403558
aF0.9742639529859669
aF0.0
aF0.0
aF5.383080692684483e-06
aF1.2454542653543746e-06
aF0.9999999999847357
aF0.0
aF2.9402503967285156
aF-0.00035858154296875
aF-0.000141143798828125
aF1.0
asg16
VLeftHandMiddle3
p112
sbag0
(g8
g2
Ntp113
Rp114
(dp115
g12
I11
sg13
I20
sg14
(lp116
F0.995571372690749
aF-0.04384835600063005
aF0.0831562598647848
aF0.0
aF0.054466947212772884
aF0.9900086839519173
aF-0.13006212885045984
aF0.0
aF-0.07662240886306447
aF0.13401539977120022
aF0.9880125905494255
aF0.0
aF1.1700515747070312
aF-0.0694580078125
aF1.3123130798339844
aF1.0
asg16
VLeftHandRing
p117
sbag0
(g8
g2
Ntp118
Rp119
(dp120
g12
I20
sg13
I21
sg14
(lp121
F0.977307485508586
aF0.2118255857124263
aF-2.544106988138133e-06
aF0.0
aF-0.21182558571233026
aF0.977307485511869
aF3.1022631899579335e-07
aF0.0
aF2.5520886751751467e-06
aF2.3572044912082926e-07
aF0.9999999999967156
aF0.0
aF7.427361011505127
aF-7.62939453125e-06
aF7.62939453125e-06
aF1.0
asg16
VLeftHandRing1
p122
sbag0
(g8
g2
Ntp123
Rp124
(dp125
g12
I21
sg13
I22
sg14
(lp126
F0.9847269399092026
aF0.17410586951420223
aF4.2144160552690026e-06
aF0.0
aF-0.17410586951586546
aF0.9847269399179265
aF2.821897702071235e-08
aF0.0
aF-4.1451359361150316e-06
aF-7.615425586932074e-07
aF0.999999999991119
aF0.0
aF5.030933380126953
aF-1.52587890625e-05
aF3.814697265625e-06
aF1.0
asg16
VLeftHandRing2
p127
sbag0
(g8
g2
Ntp128
Rp129
(dp130
g12
I22
sg13
I23
sg14
(lp131
F0.9780494971581964
aF0.20837269760303742
aF1.4940459790431773e-06
aF0.0
aF-0.2083726976031994
aF0.9780494971593019
aF-4.815427566008403e-08
aF0.0
aF-1.4712849548564683e-06
aF-2.642211259010776e-07
aF0.9999999999988828
aF0.0
aF2.7516021728515625
aF-0.0001678466796875
aF-0.0001316070556640625
aF1.0
asg16
VLeftHandRing3
p132
sbag0
(g8
g2
Ntp133
Rp134
(dp135
g12
I11
sg13
I24
sg14
(lp136
F0.9889508658857044
aF-0.006645131356424622
aF0.14809425337900653
aF0.0
aF0.04074489207517302
aF0.972704532743763
aF-0.22844199646632465
aF0.0
aF-0.14253393295690478
aF0.23195200840632882
aF0.9622278024210831
aF0.0
aF1.195526123046875
aF0.35577392578125
aF2.9682140350341797
aF1.0
asg16
VLeftHandPinky
p137
sbag0
(g8
g2
Ntp138
Rp139
(dp140
g12
I24
sg13
I25
sg14
(lp141
F0.9895831982226181
aF0.14290064074745334
aF0.01744994754896926
aF0.0
aF-0.14291728147545946
aF0.9897345921918173
aF-0.00029609890507201436
aF0.0
aF-0.017313129444407098
aF-0.002200884564116664
aF0.9998476942294644
aF0.0
aF6.304416656494141
aF-0.00012969970703125
aF-5.722046262235381e-05
aF1.0
asg16
VLeftHandPinky1
p142
sbag0
(g8
g2
Ntp143
Rp144
(dp145
g12
I25
sg13
I26
sg14
(lp146
F0.9789985613742674
aF0.20386686248094807
aF-5.330533228330399e-08
aF0.0
aF-0.20386686248094835
aF0.9789985613742689
aF8.271805632492209e-25
aF0.0
aF5.2185849839969873e-08
aF1.086719214157181e-08
aF0.9999999999999986
aF0.0
aF3.8000638484954834
aF9.1552734375e-05
aF6.866455078125e-05
aF1.0
asg16
VLeftHandPinky2
p147
sbag0
(g8
g2
Ntp148
Rp149
(dp150
g12
I26
sg13
I27
sg14
(lp151
F0.9961541402837242
aF0.08761740458417494
aF4.912477347478272e-07
aF0.0
aF-0.08761740458416944
aF0.9961541402838452
aF-3.275979119566813e-08
aF0.0
aF-4.922288514316421e-07
aF-1.0408051132798382e-08
aF0.9999999999998788
aF0.0
aF2.2260513305664062
aF-0.0001220703125
aF-0.000133514404296875
aF1.0
asg16
VLeftHandPinky3
p152
sbag0
(g8
g2
Ntp153
Rp154
(dp155
g12
I11
sg13
I28
sg14
(lp156
F0.7231844618441823
aF0.5361735900941533
aF-0.4353413780387609
aF0.0
aF0.5498549684836764
aF-0.06554721896639999
aF0.8326841877388449
aF0.0
aF0.4179278786335722
aF-0.8415589360580411
aF-0.3422204631545285
aF0.0
aF1.00518798828125
aF1.3922271728515625
aF-2.4082164764404297
aF1.0
asg16
VLeftHandThumb1
p157
sbag0
(g8
g2
Ntp158
Rp159
(dp160
g12
I28
sg13
I29
sg14
(lp161
F0.960090747924763
aF0.27968867646982987
aF1.955496819369825e-06
aF0.0
aF-0.2796886764727936
aF0.9600907479247954
aF1.4504855613996055e-06
aF0.0
aF-1.47177001696688e-06
aF-1.9395280847545213e-06
aF0.999999999997036
aF0.0
aF5.2392425537109375
aF0.00031280517578125
aF-0.0001678466796875
aF1.0
asg16
VLeftHandThumb2
p162
sbag0
(g8
g2
Ntp163
Rp164
(dp165
g12
I29
sg13
I30
sg14
(lp166
F0.9999545337849811
aF0.009529488216533846
aF2.8117403177601436e-06
aF0.0
aF-0.009529488213826948
aF0.9999545337884852
aF-9.74544472107962e-07
aF0.0
aF-2.820899724921015e-06
aF9.477058300163459e-07
aF0.9999999999955722
aF0.0
aF3.5809478759765625
aF-2.47955322265625e-05
aF6.103515625e-05
aF1.0
asg16
VLeftHandThumb3
p167
sbag0
(g8
g2
Ntp168
Rp169
(dp170
g12
I11
sg13
I31
sg14
(lp171
F0.0006270957957268327
aF0.9973335018199132
aF-0.07297434124353287
aF0.0
aF0.9947597999227482
aF0.006838500815379044
aF0.10200949438992167
aF0.0
aF0.10223652135087358
aF-0.07265591081996622
aF-0.9921029863315063
aF0.0
aF7.334022045135498
aF2.7366180419921875
aF-0.4966563880443573
aF1.0
asg16
VLeftHandProp
p172
sbag0
(g8
g2
Ntp173
Rp174
(dp175
g12
I4
sg13
I32
sg14
(lp176
F-0.15603732074089377
aF-0.027505105966472772
aF-0.9873682505025012
aF0.0
aF-0.0007883794087966779
aF-0.999608671674718
aF0.027970677643360347
aF0.0
aF-0.9877508485438713
aF0.005142888557132518
aF0.1559545186846194
aF0.0
aF15.596741676330566
aF-2.82692813873291
aF-3.058272123336792
aF1.0
asg16
VRightClavicle
p177
sbag0
(g8
g2
Ntp178
Rp179
(dp180
g12
I32
sg13
I33
sg14
(lp181
F0.8867642092897825
aF-0.023804571283738862
aF0.46160855743733586
aF0.0
aF0.050411676557430535
aF0.997696441863069
aF-0.04539243065138495
aF0.0
aF-0.45946469532382095
aF0.06352284795424652
aF0.885921577533119
aF0.0
aF15.071222305297852
aF5.7220458984375e-06
aF0.00018310546875
aF1.0
asg16
VRightArm
p182
sbag0
(g8
g2
Ntp183
Rp184
(dp185
g12
I33
sg13
I34
sg14
(lp186
F0.9228501092854577
aF-0.38515928625909546
aF4.50415587013935e-07
aF0.0
aF0.38515928625913454
aF0.9228501092855513
aF0.0
aF0.0
aF-4.1566607369972567e-07
aF1.734817460142763e-07
aF0.9999999999998985
aF0.0
aF29.652786254882812
aF-1.049041748046875e-05
aF-0.0001220703125
aF1.0
asg16
VRightForeArm
p187
sbag0
(g8
g2
Ntp188
Rp189
(dp190
g12
I34
sg13
I35
sg14
(lp191
F0.9859622356162313
aF0.11278926325880557
aF0.12311349569764127
aF0.0
aF-0.12336263257510924
aF-0.004794560982643274
aF0.9923499557366633
aF0.0
aF0.11251670227187337
aF-0.9936072450301809
aF0.009186724924139416
aF0.0
aF27.268043518066406
aF4.76837158203125e-05
aF0.0003662109375
aF1.0
asg16
VRightHand
p192
sbag0
(g8
g2
Ntp193
Rp194
(dp195
g12
I35
sg13
I36
sg14
(lp196
F0.7231775629707192
aF0.5361784736838761
aF0.4353466866354611
aF0.0
aF0.5498570124671139
aF-0.06553433203628192
aF-0.8326838523449416
aF0.0
aF-0.41793700269865586
aF0.8415567075647135
aF-0.3422144522219044
aF0.0
aF1.0052986145019531
aF1.392120361328125
aF2.408174514770508
aF1.0
asg16
VRightHandThumb1
p197
sbag0
(g8
g2
Ntp198
Rp199
(dp200
g12
I36
sg13
I37
sg14
(lp201
F0.9600888657832004
aF0.27969492414028396
aF-5.099788313171073e-08
aF0.0
aF-0.27969492414026675
aF0.9600888657830372
aF-5.704966183600976e-07
aF0.0
aF-1.1060252180610364e-07
aF5.619913673029251e-07
aF0.999999999999836
aF0.0
aF5.239204406738281
aF0.0002727508544921875
aF0.000274658203125
aF1.0
asg16
VRightHandThumb2
p202
sbag0
(g8
g2
Ntp203
Rp204
(dp205
g12
I37
sg13
I38
sg14
(lp206
F0.9999545354444698
aF0.009529314494820931
aF-8.738344418676622e-08
aF0.0
aF-0.009529314494782962
aF0.9999545354443835
aF4.2510907898744837e-07
aF0.0
aF9.143048034494538e-08
aF-4.2425709784621304e-07
aF0.9999999999999059
aF0.0
aF3.5809707641601562
aF-0.0001354217529296875
aF-0.0001373291015625
aF1.0
asg16
VRightHandThumb3
p207
sbag0
(g8
g2
Ntp208
Rp209
(dp210
g12
I35
sg13
I39
sg14
(lp211
F0.995970728929495
aF-0.036653939512805454
aF0.08184617177267303
aF0.0
aF0.045179445317472665
aF0.9934591521724617
aF-0.10487006572697016
aF0.0
aF-0.07746692275459244
aF0.10814527400106146
aF0.9911121815318805
aF0.0
aF1.1402626037597656
aF-0.0083770751953125
aF2.425168991088867
aF1.0
asg16
VRightHandIndex
p212
sbag0
(g8
g2
Ntp213
Rp214
(dp215
g12
I39
sg13
I40
sg14
(lp216
F0.9944729493505089
aF0.10499254164278751
aF4.4919144575869187e-07
aF0.0
aF-0.10499254164277405
aF0.9944729493506103
aF-5.353114326307506e-08
aF0.0
aF-4.523291665967824e-07
aF6.073523072557887e-09
aF0.9999999999998976
aF0.0
aF7.625301361083984
aF-0.000152587890625
aF4.57763671875e-05
aF1.0
asg16
VRightHandIndex1
p217
sbag0
(g8
g2
Ntp218
Rp219
(dp220
g12
I40
sg13
I41
sg14
(lp221
F0.9780506180736113
aF0.20836715018562552
aF-2.4880955543629756e-07
aF0.0
aF-0.20836715018562363
aF0.9780506180736427
aF3.374276065313595e-08
aF0.0
aF2.5037925220132055e-07
aF1.884161233899885e-08
aF0.9999999999999685
aF0.0
aF4.726036071777344
aF0.00048828125
aF-0.0001850128173828125
aF1.0
asg16
VRightHandIndex2
p222
sbag0
(g8
g2
Ntp223
Rp224
(dp225
g12
I41
sg13
I42
sg14
(lp226
F0.9944729432340923
aF0.10499259957745916
aF5.50956646876351e-08
aF0.0
aF-0.10499259957746207
aF0.9944729432340922
aF5.3133880707432024e-08
aF0.0
aF-4.921248942682494e-08
aF-5.862485078219868e-08
aF0.9999999999999971
aF0.0
aF2.7680397033691406
aF-0.00028228759765625
aF0.0001735687255859375
aF1.0
asg16
VRightHandIndex3
p227
sbag0
(g8
g2
Ntp228
Rp229
(dp230
g12
I35
sg13
I43
sg14
(lp231
F0.998205574912054
aF-0.05262231199235658
aF0.028574857743738215
aF0.0
aF0.05173582705478292
aF0.9981818463845452
aF0.030923882971124916
aF0.0
aF-0.03015019227763349
aF-0.029390050233143263
aF0.9991132022213074
aF0.0
aF1.1787376403808594
aF-0.29400634765625
aF0.20842361450195312
aF1.0
asg16
VRightHandMiddle
p232
sbag0
(g8
g2
Ntp233
Rp234
(dp235
g12
I43
sg13
I44
sg14
(lp236
F0.9892729655098277
aF0.14607833686727087
aF4.442993692597752e-07
aF0.0
aF-0.1460783368672541
aF0.9892729655099275
aF-7.008004192223851e-08
aF0.0
aF-4.4977058419022754e-07
aF4.425778490421858e-09
aF0.9999999999998989
aF0.0
aF7.872585296630859
aF-0.0003509521484375
aF9.918212890625e-05
aF1.0
asg16
VRightHandMiddle1
p237
sbag0
(g8
g2
Ntp238
Rp239
(dp240
g12
I44
sg13
I45
sg14
(lp241
F0.9847266291009447
aF0.17410728511497228
aF-3.135779319784991e-07
aF0.0
aF-0.17410728511498083
aF0.9847266291009931
aF0.0
aF0.0
aF3.087885767281136e-07
aF5.4596208917121696e-08
aF0.9999999999999508
aF0.0
aF5.1855621337890625
aF0.00031280517578125
aF-0.000110626220703125
aF1.0
asg16
VRightHandMiddle2
p242
sbag0
(g8
g2
Ntp243
Rp244
(dp245
g12
I45
sg13
I46
sg14
(lp246
F0.9742648459299634
aF0.22540632197226337
aF3.044770477705469e-08
aF0.0
aF-0.2254063219722611
aF0.9742648459299623
aF-6.385790200142993e-08
aF0.0
aF-4.405810322254572e-08
aF5.53514039085407e-08
aF0.9999999999999974
aF0.0
aF2.9402694702148438
aF-0.00032806396484375
aF0.0001373291015625
aF1.0
asg16
VRightHandMiddle3
p247
sbag0
(g8
g2
Ntp248
Rp249
(dp250
g12
I35
sg13
I47
sg14
(lp251
F0.995571418784506
aF-0.043847859935096295
aF-0.08315596959039064
aF0.0
aF0.0544663728660584
aF0.9900087218420766
aF0.1300616226799718
aF0.0
aF0.07662221135351847
aF-0.13401483826666344
aF0.9880126217019551
aF0.0
aF1.1694183349609375
aF-0.0701751708984375
aF-1.3121223449707031
aF1.0
asg16
VRightHandRing
p252
sbag0
(g8
g2
Ntp253
Rp254
(dp255
g12
I47
sg13
I48
sg14
(lp256
F0.9773082240802122
aF0.21182189673377663
aF-2.8747285012123507e-08
aF0.0
aF-0.21182189673372545
aF0.9773082240800541
aF5.758221097120471e-07
aF0.0
aF1.5006670741211725e-07
aF-5.566664453513983e-07
aF0.9999999999998338
aF0.0
aF7.427314758300781
aF-3.0517578125e-05
aF0.0
aF1.0
asg16
VRightHandRing1
p257
sbag0
(g8
g2
Ntp258
Rp259
(dp260
g12
I48
sg13
I49
sg14
(lp261
F0.9847266675094549
aF0.17410741022633677
aF3.921368896310092e-08
aF0.0
aF-0.17410741022633688
aF0.9847266675094557
aF0.0
aF0.0
aF-3.861476525338669e-08
aF-6.827393830786591e-09
aF0.9999999999999992
aF0.0
aF5.030925750732422
aF2.288818359375e-05
aF-3.814697265625e-06
aF1.0
asg16
VRightHandRing2
p262
sbag0
(g8
g2
Ntp263
Rp264
(dp265
g12
I49
sg13
I50
sg14
(lp266
F0.9780506486241449
aF0.20836729284058794
aF-4.172811592129742e-07
aF0.0
aF-0.20836729284081348
aF0.9780506486240017
aF-6.0013687112536e-07
aF0.0
aF2.830732132566127e-07
aF6.739120015661071e-07
aF0.9999999999997329
aF0.0
aF2.7525062561035156
aF0.0001983642578125
aF-0.000125885009765625
aF1.0
asg16
VRightHandRing3
p267
sbag0
(g8
g2
Ntp268
Rp269
(dp270
g12
I35
sg13
I51
sg14
(lp271
F0.9889495960440525
aF-0.006644410861038603
aF-0.1481031677197186
aF0.0
aF0.040746391168066186
aF0.9727042547686824
aF0.22844265178025594
aF0.0
aF0.14254272304528526
aF-0.23195295162792692
aF0.9622262729409999
aF0.0
aF1.1955604553222656
aF0.3557586669921875
aF-2.9682559967041016
aF1.0
asg16
VRightHandPinky
p272
sbag0
(g8
g2
Ntp273
Rp274
(dp275
g12
I51
sg13
I52
sg14
(lp276
F0.9895821456543845
aF0.14290750054156168
aF-0.017450045322061156
aF0.0
aF-0.14292399544613926
aF0.9897336199446708
aF0.0003050851191846726
aF0.0
aF0.017314496508661677
aF0.002192123541955945
aF0.9998476898033162
aF0.0
aF6.3043742179870605
aF-0.0001220703125
aF6.4849853515625e-05
aF1.0
asg16
VRightHandPinky1
p277
sbag0
(g8
g2
Ntp278
Rp279
(dp280
g12
I52
sg13
I53
sg14
(lp281
F0.9789985145342478
aF0.2038673797833453
aF-9.685754244192755e-08
aF0.0
aF-0.20386737978334624
aF0.9789985145342525
aF0.0
aF0.0
aF9.482339017208538e-08
aF1.9746093389890017e-08
aF0.9999999999999953
aF0.0
aF3.8000528812408447
aF7.62939453125e-05
aF-4.57763671875e-05
aF1.0
asg16
VRightHandPinky2
p282
sbag0
(g8
g2
Ntp283
Rp284
(dp285
g12
I53
sg13
I54
sg14
(lp286
F0.9961540086103269
aF0.08761958188389547
aF-2.6109733606952473e-07
aF0.0
aF-0.08761958188389847
aF0.9961540086103609
aF1.6543612251060557e-24
aF0.0
aF2.6009315796314365e-07
aF2.2877239417411477e-08
aF0.9999999999999659
aF0.0
aF2.226043701171875
aF-0.000152587890625
aF0.000118255615234375
aF1.0
asg16
VRightHandPinky3
p287
sbag0
(g8
g2
Ntp288
Rp289
(dp290
g12
I35
sg13
I55
sg14
(lp291
F-0.0006010698293967831
aF-0.9973391920383468
aF-0.072898386397491
aF0.0
aF0.9947676374431165
aF0.006851082166938638
aF-0.10193336141314135
aF0.0
aF0.10216156914858164
aF-0.07257822467820198
aF0.9921166338146237
aF0.0
aF7.321503162384033
aF2.75201416015625
aF0.5070352554321289
aF1.0
asg16
VRightHandProp
p292
sbag0
(g8
g2
Ntp293
Rp294
(dp295
g12
I1
sg13
I56
sg14
(lp296
F-0.9987219104171026
aF-0.041229954740419524
aF0.02923008837398338
aF0.0
aF-0.03881884854376727
aF0.9961392028094966
aF0.0787387174380983
aF0.0
aF-0.03236363261622535
aF0.07750340854962277
aF-0.9964666064338465
aF0.0
aF0.0
aF6.110458798502805e-06
aF8.737859725952148
aF1.0
asg16
VLeftUpLeg
p297
sbag0
(g8
g2
Ntp298
Rp299
(dp300
g12
I56
sg13
I57
sg14
(lp301
F0.9969258151338785
aF-0.07835125445791907
aF6.672515143338263e-06
aF0.0
aF0.07835125444614982
aF0.9969258151551116
aF2.0077475037122708e-06
aF0.0
aF-6.809312133957936e-06
aF-1.478775384929881e-06
aF0.9999999999757232
aF0.0
aF43.689327239990234
aF9.012222290039062e-05
aF0.0003070831298828125
aF1.0
asg16
VLeftLeg
p302
sbag0
(g8
g2
Ntp303
Rp304
(dp305
g12
I57
sg13
I58
sg14
(lp306
F0.992609807916696
aF0.11695578834987073
aF0.03235728032072689
aF0.0
aF-0.11132598953084591
aF0.9837673483388064
aF-0.14074163985162866
aF0.0
aF-0.048292591060003054
aF0.13609934207307942
aF0.9895174554983789
aF0.0
aF43.689292907714844
aF-6.67572021484375e-06
aF-1.33514404296875e-05
aF1.0
asg16
VLeftFoot
p307
sbag0
(g8
g2
Ntp308
Rp309
(dp310
g12
I58
sg13
I59
sg14
(lp311
F5.725796002219063e-06
aF0.9999999403561632
aF6.752715160877733e-06
aF0.0
aF-0.9999999403781146
aF5.725787206144608e-06
aF1.3026184990804416e-06
aF0.0
aF1.302579912056823e-06
aF-6.7527230217832075e-06
aF0.999999999976352
aF0.0
aF10.340982437133789
aF14.229318618774414
aF3.528594970703125e-05
aF1.0
asg16
VLeftFootToes
p312
sbag0
(g8
g2
Ntp313
Rp314
(dp315
g12
I1
sg13
I60
sg14
(lp316
F-0.9987219150351699
aF-0.04122995493106589
aF-0.02922993031637751
aF0.0
aF-0.03881886098374595
aF0.9961392022959404
aF-0.07873871780218433
aF0.0
aF0.03236347518384975
aF-0.07750341504885912
aF-0.9964666110414853
aF0.0
aF0.0
aF5.527712346520275e-06
aF-8.737859725952148
aF1.0
asg16
VRightUpLeg
p317
sbag0
(g8
g2
Ntp318
Rp319
(dp320
g12
I60
sg13
I61
sg14
(lp321
F0.9969260237290862
aF-0.07834783980702606
aF0.0
aF0.0
aF0.07834783980694679
aF0.9969260237280775
aF-1.4225899654430743e-06
aF0.0
aF1.1145686401030991e-07
aF1.418217126710713e-06
aF0.9999999999989881
aF0.0
aF43.689231872558594
aF1.5735626220703125e-05
aF4.76837158203125e-06
aF1.0
asg16
VRightLeg
p322
sbag0
(g8
g2
Ntp323
Rp324
(dp325
g12
I61
sg13
I62
sg14
(lp326
F0.9926097426869215
aF0.11695628319772455
aF-0.03235933472086792
aF0.0
aF-0.11132636816934276
aF0.9837678181407121
aF0.14073805644387988
aF0.0
aF0.0482942749795441
aF-0.13609552689409224
aF0.9895178980511771
aF0.0
aF43.689361572265625
aF9.5367431640625e-07
aF1.9073486328125e-06
aF1.0
asg16
VRightFoot
p327
sbag0
(g8
g2
Ntp328
Rp329
(dp330
g12
I62
sg13
I63
sg14
(lp331
F9.85369544602013e-06
aF0.999999940343019
aF-2.7525965243757453e-06
aF0.0
aF-0.9999999403437229
aF9.853702282773109e-06
aF2.4837662949129585e-06
aF0.0
aF2.4837935660968735e-06
aF2.752572214021624e-06
aF0.999999999993127
aF0.0
aF10.341054916381836
aF14.229348182678223
aF-0.00041866302490234375
aF1.0
asg16
VRightFootToes
p332
sbasb.