(dp0
S'i'
p1
(lp2
(lp3
I0
aI1
aI2
aa(lp4
I2
aI1
aI3
aa(lp5
I16
aI17
aI19
aa(lp6
I19
aI17
aI18
aa(lp7
I4
aI5
aI6
aa(lp8
I6
aI5
aI7
aa(lp9
I6
aI7
aI0
aa(lp10
I0
aI7
aI1
aa(lp11
I1
aI7
aI3
aa(lp12
I3
aI7
aI5
aa(lp13
I6
aI0
aI4
aa(lp14
I4
aI0
aI2
aa(lp15
I2
aI3
aI8
aa(lp16
I8
aI3
aI9
aa(lp17
I3
aI5
aI9
aa(lp18
I9
aI5
aI10
aa(lp19
I5
aI4
aI10
aa(lp20
I10
aI4
aI11
aa(lp21
I2
aI8
aI4
aa(lp22
I4
aI8
aI11
aa(lp23
I8
aI9
aI12
aa(lp24
I12
aI9
aI13
aa(lp25
I29
aI30
aI28
aa(lp26
I28
aI30
aI31
aa(lp27
I10
aI11
aI14
aa(lp28
I14
aI11
aI15
aa(lp29
I33
aI32
aI35
aa(lp30
I35
aI32
aI34
aa(lp31
I12
aI13
aI16
aa(lp32
I16
aI13
aI17
aa(lp33
I13
aI14
aI17
aa(lp34
I17
aI14
aI18
aa(lp35
I14
aI15
aI18
aa(lp36
I18
aI15
aI19
aa(lp37
I12
aI16
aI15
aa(lp38
I15
aI16
aI19
aa(lp39
I9
aI10
aI20
aa(lp40
I20
aI10
aI21
aa(lp41
I10
aI14
aI21
aa(lp42
I21
aI14
aI22
aa(lp43
I14
aI13
aI22
aa(lp44
I22
aI13
aI23
aa(lp45
I9
aI20
aI13
aa(lp46
I13
aI20
aI23
aa(lp47
I8
aI24
aI11
aa(lp48
I11
aI24
aI25
aa(lp49
I8
aI12
aI24
aa(lp50
I24
aI12
aI26
aa(lp51
I15
aI27
aI12
aa(lp52
I12
aI27
aI26
aa(lp53
I11
aI25
aI15
aa(lp54
I15
aI25
aI27
aa(lp55
I21
aI29
aI20
aa(lp56
I20
aI29
aI28
aa(lp57
I21
aI22
aI29
aa(lp58
I29
aI22
aI30
aa(lp59
I22
aI23
aI30
aa(lp60
I30
aI23
aI31
aa(lp61
I20
aI28
aI23
aa(lp62
I23
aI28
aI31
aa(lp63
I25
aI24
aI33
aa(lp64
I33
aI24
aI32
aa(lp65
I24
aI26
aI32
aa(lp66
I32
aI26
aI34
aa(lp67
I27
aI35
aI26
aa(lp68
I26
aI35
aI34
aa(lp69
I25
aI33
aI27
aa(lp70
I27
aI33
aI35
aasS'v'
p71
(lp72
(lp73
F-14.755192756652832
aF105.94891357421875
aF11.563223838806152
aa(lp74
F14.755192756652832
aF105.94891357421875
aF11.563223838806152
aa(lp75
F-14.755192756652832
aF123.07910919189453
aF11.563223838806152
aa(lp76
F14.755192756652832
aF123.07910919189453
aF11.563223838806152
aa(lp77
F-14.755192756652832
aF123.07910919189453
aF-11.563223838806152
aa(lp78
F14.755192756652832
aF123.07910919189453
aF-11.563223838806152
aa(lp79
F-14.755192756652832
aF105.94891357421875
aF-11.563223838806152
aa(lp80
F14.755192756652832
aF105.94891357421875
aF-11.563223838806152
aa(lp81
F-17.760486602783203
aF138.5364532470703
aF11.767718315124512
aa(lp82
F17.760486602783203
aF138.5364532470703
aF11.767718315124512
aa(lp83
F17.760486602783203
aF138.5364532470703
aF-13.328202247619629
aa(lp84
F-17.760486602783203
aF138.5364532470703
aF-13.328202247619629
aa(lp85
F-17.760486602783203
aF155.25572204589844
aF5.928037166595459
aa(lp86
F17.760486602783203
aF155.25572204589844
aF5.928037166595459
aa(lp87
F17.760486602783203
aF155.25572204589844
aF-11.144893646240234
aa(lp88
F-17.760486602783203
aF155.25572204589844
aF-11.144893646240234
aa(lp89
F-7.221782684326172
aF160.6168670654297
aF5.120693206787109
aa(lp90
F7.221782684326172
aF160.6168670654297
aF5.120693206787109
aa(lp91
F7.221782684326172
aF167.5559539794922
aF-6.898139953613281
aa(lp92
F-7.221782684326172
aF167.5559539794922
aF-6.898139953613281
aa(lp93
F30.610095977783203
aF143.28465270996094
aF5.641225814819336
aa(lp94
F30.610095977783203
aF143.28465270996094
aF-10.500541687011719
aa(lp95
F30.610095977783203
aF154.70639038085938
aF-8.80923843383789
aa(lp96
F30.610095977783203
aF154.70639038085938
aF4.416337966918945
aa(lp97
F-30.61009979248047
aF143.28465270996094
aF5.641225814819336
aa(lp98
F-30.61009979248047
aF143.28465270996094
aF-10.500541687011719
aa(lp99
F-30.610095977783203
aF154.70639038085938
aF4.416337966918945
aa(lp100
F-30.610095977783203
aF154.70639038085938
aF-8.80923843383789
aa(lp101
F45.713321685791016
aF143.6652069091797
aF3.4397528171539307
aa(lp102
F45.713321685791016
aF143.6652069091797
aF-8.143444061279297
aa(lp103
F45.713321685791016
aF154.281005859375
aF-6.929779052734375
aa(lp104
F45.713321685791016
aF154.281005859375
aF2.560783863067627
aa(lp105
F-45.71332550048828
aF143.6652069091797
aF3.4397528171539307
aa(lp106
F-45.71332550048828
aF143.6652069091797
aF-8.143444061279297
aa(lp107
F-45.713321685791016
aF154.281005859375
aF2.560783863067627
aa(lp108
F-45.713321685791016
aF154.281005859375
aF-6.929779052734375
aas.