(dp0
S'i'
p1
(lp2
(lp3
I0
aI1
aI2
aa(lp4
I2
aI1
aI3
aa(lp5
I16
aI17
aI19
aa(lp6
I19
aI17
aI18
aa(lp7
I4
aI5
aI6
aa(lp8
I6
aI5
aI7
aa(lp9
I6
aI7
aI0
aa(lp10
I0
aI7
aI1
aa(lp11
I1
aI7
aI3
aa(lp12
I3
aI7
aI5
aa(lp13
I6
aI0
aI4
aa(lp14
I4
aI0
aI2
aa(lp15
I2
aI3
aI8
aa(lp16
I8
aI3
aI9
aa(lp17
I3
aI5
aI9
aa(lp18
I9
aI5
aI10
aa(lp19
I5
aI4
aI10
aa(lp20
I10
aI4
aI11
aa(lp21
I2
aI8
aI4
aa(lp22
I4
aI8
aI11
aa(lp23
I8
aI9
aI12
aa(lp24
I12
aI9
aI13
aa(lp25
I29
aI30
aI28
aa(lp26
I28
aI30
aI31
aa(lp27
I10
aI11
aI14
aa(lp28
I14
aI11
aI15
aa(lp29
I33
aI32
aI35
aa(lp30
I35
aI32
aI34
aa(lp31
I12
aI13
aI16
aa(lp32
I16
aI13
aI17
aa(lp33
I13
aI14
aI17
aa(lp34
I17
aI14
aI18
aa(lp35
I14
aI15
aI18
aa(lp36
I18
aI15
aI19
aa(lp37
I12
aI16
aI15
aa(lp38
I15
aI16
aI19
aa(lp39
I9
aI10
aI20
aa(lp40
I20
aI10
aI21
aa(lp41
I10
aI14
aI21
aa(lp42
I21
aI14
aI22
aa(lp43
I14
aI13
aI22
aa(lp44
I22
aI13
aI23
aa(lp45
I9
aI20
aI13
aa(lp46
I13
aI20
aI23
aa(lp47
I8
aI24
aI11
aa(lp48
I11
aI24
aI25
aa(lp49
I8
aI12
aI24
aa(lp50
I24
aI12
aI26
aa(lp51
I15
aI27
aI12
aa(lp52
I12
aI27
aI26
aa(lp53
I11
aI25
aI15
aa(lp54
I15
aI25
aI27
aa(lp55
I21
aI29
aI20
aa(lp56
I20
aI29
aI28
aa(lp57
I21
aI22
aI29
aa(lp58
I29
aI22
aI30
aa(lp59
I22
aI23
aI30
aa(lp60
I30
aI23
aI31
aa(lp61
I20
aI28
aI23
aa(lp62
I23
aI28
aI31
aa(lp63
I25
aI24
aI33
aa(lp64
I33
aI24
aI32
aa(lp65
I24
aI26
aI32
aa(lp66
I32
aI26
aI34
aa(lp67
I27
aI35
aI26
aa(lp68
I26
aI35
aI34
aa(lp69
I25
aI33
aI27
aa(lp70
I27
aI33
aI35
aasS'v'
p71
(lp72
(lp73
F-13.281436920166016
aF105.94891357421875
aF12.96246337890625
aa(lp74
F13.281436920166016
aF105.94891357421875
aF12.96246337890625
aa(lp75
F-13.281436920166016
aF123.07910919189453
aF12.96246337890625
aa(lp76
F13.281436920166016
aF123.07910919189453
aF12.96246337890625
aa(lp77
F-13.281436920166016
aF121.52493286132812
aF-8.523111343383789
aa(lp78
F13.281436920166016
aF121.52493286132812
aF-8.523111343383789
aa(lp79
F-13.281436920166016
aF104.39473724365234
aF-8.523111343383789
aa(lp80
F13.281436920166016
aF104.39473724365234
aF-8.523111343383789
aa(lp81
F-21.38557243347168
aF133.92347717285156
aF22.356422424316406
aa(lp82
F21.38557243347168
aF133.92347717285156
aF22.356422424316406
aa(lp83
F21.38557243347168
aF133.92347717285156
aF-16.026111602783203
aa(lp84
F-21.38557243347168
aF133.92347717285156
aF-16.026111602783203
aa(lp85
F-21.38557243347168
aF155.9581756591797
aF15.561513900756836
aa(lp86
F21.38557243347168
aF155.9581756591797
aF15.561513900756836
aa(lp87
F21.38557243347168
aF155.9581756591797
aF-13.48566722869873
aa(lp88
F-21.38557243347168
aF155.9581756591797
aF-13.48566722869873
aa(lp89
F-8.695817947387695
aF166.3102264404297
aF7.662150859832764
aa(lp90
F8.695817947387695
aF166.3102264404297
aF7.662150859832764
aa(lp91
F8.695817947387695
aF175.4553985595703
aF-6.32266902923584
aa(lp92
F-8.695817947387695
aF175.4553985595703
aF-6.32266902923584
aa(lp93
F36.85791015625
aF140.1812286376953
aF6.046250343322754
aa(lp94
F36.85791015625
aF140.1812286376953
aF-12.735915184020996
aa(lp95
F36.85791015625
aF155.2342071533203
aF-10.767955780029297
aa(lp96
F36.85791015625
aF155.2342071533203
aF4.62100076675415
aa(lp97
F-36.857913970947266
aF140.1812286376953
aF6.046250343322754
aa(lp98
F-36.857913970947266
aF140.1812286376953
aF-12.735915184020996
aa(lp99
F-36.85791015625
aF155.2342071533203
aF4.62100076675415
aa(lp100
F-36.85791015625
aF155.2342071533203
aF-10.767955780029297
aa(lp101
F55.043853759765625
aF140.68276977539062
aF3.4846699237823486
aa(lp102
F55.043853759765625
aF140.68276977539062
aF-9.993254661560059
aa(lp103
F55.043853759765625
aF154.673583984375
aF-8.581063270568848
aa(lp104
F55.043853759765625
aF154.673583984375
aF2.461923122406006
aa(lp105
F-55.043853759765625
aF140.68276977539062
aF3.4846699237823486
aa(lp106
F-55.043853759765625
aF140.68276977539062
aF-9.993254661560059
aa(lp107
F-55.043853759765625
aF154.673583984375
aF2.461923122406006
aa(lp108
F-55.043853759765625
aF154.673583984375
aF-8.581063270568848
aas.