ccopy_reg
_reconstructor
p0
(c__main__
DataSkeleton
p1
c__builtin__
object
p2
Ntp3
Rp4
(dp5
S'_bones'
p6
(lp7
g0
(c__main__
DataBone
p8
g2
Ntp9
Rp10
(dp11
S'_parentId'
p12
I-1
sS'_id'
p13
I0
sS'_matrix'
p14
(lp15
F1.0
aF0.0
aF-0.0
aF0.0
aF-0.0
aF2.220446049250313e-16
aF-1.0
aF0.0
aF0.0
aF1.0
aF2.220446049250313e-16
aF0.0
aF0.0
aF0.0
aF0.0
aF1.0
asS'_name'
p16
S'BaseSkeleton'
p17
sbag0
(g8
g2
Ntp18
Rp19
(dp20
g12
I0
sg13
I1
sg14
(lp21
F0.0
aF-2.6631610908689424e-07
aF0.9999999999999645
aF0.0
aF-1.46473859966314e-06
aF0.9999999999988918
aF2.663161090866086e-07
aF0.0
aF-0.9999999999989273
aF-1.4647385996630884e-06
aF-3.9013237085328e-13
aF0.0
aF0.0
aF0.0
aF98.01000213623047
aF1.0
asg16
VHips
p22
sbag0
(g8
g2
Ntp23
Rp24
(dp25
g12
I1
sg13
I2
sg14
(lp26
F0.9988898514002653
aF-0.047106950329316916
aF4.7656708902737337e-07
aF0.0
aF0.04710695032995617
aF0.9988898513993206
aF-1.433257923167031e-06
aF0.0
aF-4.085216189446305e-07
aF1.4541164160822728e-06
aF0.9999999999988594
aF0.0
aF7.2397990226745605
aF-0.013531177304685116
aF-0.002410888671875
aF1.0
asg16
VSpine
p27
sbag0
(g8
g2
Ntp28
Rp29
(dp30
g12
I2
sg13
I3
sg14
(lp31
F0.9944694894853479
aF-0.10502530777500048
aF-4.815232985195924e-07
aF0.0
aF0.10502530777565204
aF0.9944694894840685
aF1.6246740535511003e-06
aF0.0
aF3.082283730888862e-07
aF-1.666261107877018e-06
aF0.9999999999985643
aF0.0
aF17.033470153808594
aF-0.011990547180175781
aF-2.259388566017151e-05
aF1.0
asg16
VSpine1
p32
sbag0
(g8
g2
Ntp33
Rp34
(dp35
g12
I3
sg13
I4
sg14
(lp36
F0.9978829773241809
aF0.0650341783766978
aF4.5855834330579215e-07
aF0.0
aF-0.06503417837480012
aF0.9978829773187535
aF-3.359878418826342e-06
aF0.0
aF-6.760945779030606e-07
aF3.32294391105766e-06
aF0.9999999999942505
aF0.0
aF15.128837585449219
aF-0.010683059692382812
aF-2.42539681494236e-06
aF1.0
asg16
VSpine2
p37
sbag0
(g8
g2
Ntp38
Rp39
(dp40
g12
I4
sg13
I5
sg14
(lp41
F0.9463037826360232
aF0.32327875118657806
aF-2.4648570362686293e-08
aF0.0
aF-0.3232787511865776
aF0.9463037826360234
aF2.168402822681328e-08
aF0.0
aF3.033502093663893e-08
aF-1.2551318888435997e-08
aF0.9999999999999994
aF0.0
aF21.197662353515625
aF0.7458667755126953
aF3.543682396411896e-07
aF1.0
asg16
VNeck
p42
sbag0
(g8
g2
Ntp43
Rp44
(dp45
g12
I5
sg13
I6
sg14
(lp46
F0.9902680502095422
aF-0.1391732328222337
aF-0.0
aF0.0
aF0.1391732328222337
aF0.9902680502095422
aF0.0
aF0.0
aF0.0
aF-0.0
aF1.0
aF0.0
aF5.0644989013671875
aF-0.00408935546875
aF0.0001261741854250431
aF1.0
asg16
VNeck1
p47
sbag0
(g8
g2
Ntp48
Rp49
(dp50
g12
I6
sg13
I7
sg14
(lp51
F0.999985497798356
aF0.0053855540808741675
aF4.6480961515441053e-07
aF0.0
aF-0.0053855540842633
aF0.9999854977693573
aF7.627332820063688e-06
aF0.0
aF-4.237254609828872e-07
aF-7.629725464266427e-06
aF0.9999999999708039
aF0.0
aF5.3660888671875
aF6.4849853515625e-05
aF-1.9953586161136627e-07
aF1.0
asg16
VHead
p52
sbag0
(g8
g2
Ntp53
Rp54
(dp55
g12
I4
sg13
I8
sg14
(lp56
F-0.15603777610834801
aF-0.02750544331485538
aF0.9873680484070844
aF0.0
aF-0.0007873592431912164
aF-0.999608548103381
aF-0.027970860599311035
aF0.0
aF0.9877507744834884
aF-0.005141923630133032
aF0.155955019568627
aF0.0
aF15.596755981445312
aF-2.827016830444336
aF3.0582377910614014
aF1.0
asg16
VLeftClavicle
p57
sbag0
(g8
g2
Ntp58
Rp59
(dp60
g12
I8
sg13
I9
sg14
(lp61
F0.88676386419004
aF-0.0238045084763316
aF-0.4616093527463978
aF0.0
aF0.05041142128599831
aF0.9976964163670087
aF0.04539196143666802
aF0.0
aF0.4594654636657991
aF-0.06352233467760068
aF0.8859211485714703
aF0.0
aF15.071186065673828
aF7.62939453125e-06
aF-0.0001220703125
aF1.0
asg16
VLeftArm
p62
sbag0
(g8
g2
Ntp63
Rp64
(dp65
g12
I9
sg13
I10
sg14
(lp66
F0.9228477115975571
aF-0.3851650311219222
aF-2.9590728604366805e-08
aF0.0
aF0.3851650311218819
aF0.9228477115974195
aF5.346023318250016e-07
aF0.0
aF-1.7860238759818872e-07
aF-5.047538524432406e-07
aF0.9999999999998567
aF0.0
aF29.652864456176758
aF-1.33514404296875e-05
aF0.000213623046875
aF1.0
asg16
VLeftForeArm
p67
sbag0
(g8
g2
Ntp68
Rp69
(dp70
g12
I10
sg13
I11
sg14
(lp71
F0.9859630581845787
aF0.11278146838596922
aF-0.123114049055059
aF0.0
aF-0.12336332450657121
aF-0.004792989164463836
aF-0.9923501175694741
aF0.0
aF-0.11250879442163535
aF0.9936083743171964
aF0.009187387175996618
aF0.0
aF27.267959594726562
aF0.00022506712411995977
aF-0.0003509521484375
aF1.0
asg16
VLeftHand
p72
sbag0
(g8
g2
Ntp73
Rp74
(dp75
g12
I4
sg13
I12
sg14
(lp76
F-0.15603732074089377
aF-0.027505105966472772
aF-0.9873682505025012
aF0.0
aF-0.0007883794087966779
aF-0.999608671674718
aF0.027970677643360347
aF0.0
aF-0.9877508485438713
aF0.005142888557132518
aF0.1559545186846194
aF0.0
aF15.596741676330566
aF-2.82692813873291
aF-3.058272123336792
aF1.0
asg16
VRightClavicle
p77
sbag0
(g8
g2
Ntp78
Rp79
(dp80
g12
I12
sg13
I13
sg14
(lp81
F0.8867642092897825
aF-0.023804571283738862
aF0.46160855743733586
aF0.0
aF0.050411676557430535
aF0.997696441863069
aF-0.04539243065138495
aF0.0
aF-0.45946469532382095
aF0.06352284795424652
aF0.885921577533119
aF0.0
aF15.071222305297852
aF5.7220458984375e-06
aF0.00018310546875
aF1.0
asg16
VRightArm
p82
sbag0
(g8
g2
Ntp83
Rp84
(dp85
g12
I13
sg13
I14
sg14
(lp86
F0.9228501092854577
aF-0.38515928625909546
aF4.50415587013935e-07
aF0.0
aF0.38515928625913454
aF0.9228501092855513
aF0.0
aF0.0
aF-4.1566607369972567e-07
aF1.734817460142763e-07
aF0.9999999999998985
aF0.0
aF29.652786254882812
aF-1.049041748046875e-05
aF-0.0001220703125
aF1.0
asg16
VRightForeArm
p87
sbag0
(g8
g2
Ntp88
Rp89
(dp90
g12
I14
sg13
I15
sg14
(lp91
F0.9859622356162313
aF0.11278926325880557
aF0.12311349569764127
aF0.0
aF-0.12336263257510924
aF-0.004794560982643274
aF0.9923499557366633
aF0.0
aF0.11251670227187337
aF-0.9936072450301809
aF0.009186724924139416
aF0.0
aF27.268043518066406
aF4.76837158203125e-05
aF0.0003662109375
aF1.0
asg16
VRightHand
p92
sbag0
(g8
g2
Ntp93
Rp94
(dp95
g12
I1
sg13
I16
sg14
(lp96
F-0.9987219104171026
aF-0.041229954740419524
aF0.02923008837398338
aF0.0
aF-0.03881884854376727
aF0.9961392028094966
aF0.0787387174380983
aF0.0
aF-0.03236363261622535
aF0.07750340854962277
aF-0.9964666064338465
aF0.0
aF0.0
aF6.110458798502805e-06
aF8.737859725952148
aF1.0
asg16
VLeftUpLeg
p97
sbag0
(g8
g2
Ntp98
Rp99
(dp100
g12
I16
sg13
I17
sg14
(lp101
F0.9969258151338785
aF-0.07835125445791907
aF6.672515143338263e-06
aF0.0
aF0.07835125444614982
aF0.9969258151551116
aF2.0077475037122708e-06
aF0.0
aF-6.809312133957936e-06
aF-1.478775384929881e-06
aF0.9999999999757232
aF0.0
aF43.689327239990234
aF9.012222290039062e-05
aF0.0003070831298828125
aF1.0
asg16
VLeftLeg
p102
sbag0
(g8
g2
Ntp103
Rp104
(dp105
g12
I17
sg13
I18
sg14
(lp106
F0.992609807916696
aF0.11695578834987073
aF0.03235728032072689
aF0.0
aF-0.11132598953084591
aF0.9837673483388064
aF-0.14074163985162866
aF0.0
aF-0.048292591060003054
aF0.13609934207307942
aF0.9895174554983789
aF0.0
aF43.689292907714844
aF-6.67572021484375e-06
aF-1.33514404296875e-05
aF1.0
asg16
VLeftFoot
p107
sbag0
(g8
g2
Ntp108
Rp109
(dp110
g12
I18
sg13
I19
sg14
(lp111
F5.725796002219063e-06
aF0.9999999403561632
aF6.752715160877733e-06
aF0.0
aF-0.9999999403781146
aF5.725787206144608e-06
aF1.3026184990804416e-06
aF0.0
aF1.302579912056823e-06
aF-6.7527230217832075e-06
aF0.999999999976352
aF0.0
aF10.340982437133789
aF14.229318618774414
aF3.528594970703125e-05
aF1.0
asg16
VLeftFootToes
p112
sbag0
(g8
g2
Ntp113
Rp114
(dp115
g12
I1
sg13
I20
sg14
(lp116
F-0.9987219150351699
aF-0.04122995493106589
aF-0.02922993031637751
aF0.0
aF-0.03881886098374595
aF0.9961392022959404
aF-0.07873871780218433
aF0.0
aF0.03236347518384975
aF-0.07750341504885912
aF-0.9964666110414853
aF0.0
aF0.0
aF5.527712346520275e-06
aF-8.737859725952148
aF1.0
asg16
VRightUpLeg
p117
sbag0
(g8
g2
Ntp118
Rp119
(dp120
g12
I20
sg13
I21
sg14
(lp121
F0.9969260237290862
aF-0.07834783980702606
aF0.0
aF0.0
aF0.07834783980694679
aF0.9969260237280775
aF-1.4225899654430743e-06
aF0.0
aF1.1145686401030991e-07
aF1.418217126710713e-06
aF0.9999999999989881
aF0.0
aF43.689231872558594
aF1.5735626220703125e-05
aF4.76837158203125e-06
aF1.0
asg16
VRightLeg
p122
sbag0
(g8
g2
Ntp123
Rp124
(dp125
g12
I21
sg13
I22
sg14
(lp126
F0.9926097426869215
aF0.11695628319772455
aF-0.03235933472086792
aF0.0
aF-0.11132636816934276
aF0.9837678181407121
aF0.14073805644387988
aF0.0
aF0.0482942749795441
aF-0.13609552689409224
aF0.9895178980511771
aF0.0
aF43.689361572265625
aF9.5367431640625e-07
aF1.9073486328125e-06
aF1.0
asg16
VRightFoot
p127
sbag0
(g8
g2
Ntp128
Rp129
(dp130
g12
I22
sg13
I23
sg14
(lp131
F9.85369544602013e-06
aF0.999999940343019
aF-2.7525965243757453e-06
aF0.0
aF-0.9999999403437229
aF9.853702282773109e-06
aF2.4837662949129585e-06
aF0.0
aF2.4837935660968735e-06
aF2.752572214021624e-06
aF0.999999999993127
aF0.0
aF10.341054916381836
aF14.229348182678223
aF-0.00041866302490234375
aF1.0
asg16
VRightFootToes
p132
sbasb.