ccopy_reg
_reconstructor
p0
(c__main__
DataSkeleton
p1
c__builtin__
object
p2
Ntp3
Rp4
(dp5
S'_bones'
p6
(lp7
g0
(c__main__
DataBone
p8
g2
Ntp9
Rp10
(dp11
S'_parentId'
p12
I-1
sS'_id'
p13
I0
sS'_matrix'
p14
(lp15
F1.0
aF0.0
aF-0.0
aF0.0
aF-0.0
aF2.220446049250313e-16
aF-1.0
aF0.0
aF0.0
aF1.0
aF2.220446049250313e-16
aF0.0
aF0.0
aF0.0
aF0.0
aF1.0
asS'_name'
p16
S'Rhino_Base'
p17
sbag0
(g8
g2
Ntp18
Rp19
(dp20
g12
I0
sg13
I1
sg14
(lp21
F0.0010960498909795557
aF-0.004106140585504822
aF0.9999909691012858
aF0.0
aF1.619624573345746e-14
aF0.9999915697590841
aF0.004106143051912443
aF0.0
aF-0.9999993993371379
aF-4.500537628198634e-06
aF0.0010960406510149845
aF0.0
aF0.03583800047636032
aF0.683193027973175
aF65.45909881591797
aF1.0
asg16
VHips
p22
sbag0
(g8
g2
Ntp23
Rp24
(dp25
g12
I1
sg13
I2
sg14
(lp26
F0.9990433112689557
aF-0.043718016782443726
aF0.0010941742870262537
aF0.0
aF0.04371799052266553
aF0.9990439104506912
aF4.7917131255777164e-05
aF0.0
aF-0.0010952230003737121
aF-3.618836592271768e-08
aF0.9999994002431092
aF0.0
aF4.650844331649943
aF-3.5059142680491985e-16
aF4.9439619065339e-17
aF1.0
asg16
VSpine
p27
sbag0
(g8
g2
Ntp28
Rp29
(dp30
g12
I2
sg13
I3
sg14
(lp31
F0.9944727113767008
aF-0.10499536335890687
aF4.519904471285369e-07
aF0.0
aF0.10499536335890687
aF0.9944727113768033
aF2.3794209346819306e-08
aF0.0
aF-4.519904471285369e-07
aF2.3794209346819286e-08
aF0.9999999999998975
aF0.0
aF24.03438894877794
aF-6.49283408224659e-14
aF1.6143194365905028e-15
aF1.0
asg16
VSpine1
p32
sbag0
(g8
g2
Ntp33
Rp34
(dp35
g12
I3
sg13
I4
sg14
(lp36
F0.991434594145326
aF0.13060415587290322
aF7.868966312574143e-07
aF0.0
aF-0.13060415587290322
aF0.9914345941456368
aF-5.160700260342362e-08
aF0.0
aF-7.868966312574143e-07
aF-5.1607002603423685e-08
aF0.999999999999689
aF0.0
aF21.623896242392956
aF-9.449825764327432e-15
aF-1.2591144760935175e-18
aF1.0
asg16
VSpine2
p37
sbag0
(g8
g2
Ntp38
Rp39
(dp40
g12
I4
sg13
I5
sg14
(lp41
F0.8696596547353258
aF0.49365178467765053
aF2.025350487649053e-05
aF0.0
aF-0.49365178467765053
aF0.8696596549547264
aF-5.347592971231126e-06
aF0.0
aF-2.025350487649053e-05
aF-5.347592971231131e-06
aF0.9999999997805994
aF0.0
aF28.263865805333612
aF1.974284564722426e-14
aF7.791009048845055e-18
aF1.0
asg16
VNeck
p42
sbag0
(g8
g2
Ntp43
Rp44
(dp45
g12
I5
sg13
I6
sg14
(lp46
F0.6484317264193217
aF0.7612728127339391
aF-2.7658900789832284e-05
aF0.0
aF-0.7612728127339391
aF0.6484317268834081
aF1.2773334111411333e-05
aF0.0
aF2.7658900789832284e-05
aF1.277333411141133e-05
aF0.9999999995359136
aF0.0
aF6.199936078663541
aF-3.255237442769093e-15
aF1.3456628686365787e-18
aF1.0
asg16
VNeck1
p47
sbag0
(g8
g2
Ntp48
Rp49
(dp50
g12
I6
sg13
I7
sg14
(lp51
F0.5433465323289646
aF-0.8395085143786435
aF9.583968411310626e-06
aF0.0
aF0.8395085141635709
aF0.5433465324083702
aF1.9148717670229007e-05
aF0.0
aF-2.128292752658702e-05
aF-2.358566263895316e-06
aF0.9999999997707371
aF0.0
aF6.060466554768378
aF5.47904196529545e-15
aF1.949478260146821e-19
aF1.0
asg16
VHead
p52
sbag0
(g8
g2
Ntp53
Rp54
(dp55
g12
I7
sg13
I8
sg14
(lp56
F0.9675515647030553
aF-0.25267364252239
aF-3.890633891373858e-06
aF0.0
aF0.2526736425523437
aF0.9675515645883548
aF1.4898225517491924e-05
aF0.0
aF2.1455259850656707e-16
aF-1.5397862047919327e-05
aF0.9999999998814529
aF0.0
aF33.265980550471106
aF-1.7349291827540224e-14
aF-4.630535491124822e-18
aF1.0
asg16
VHeadEnd
p57
sbag0
(g8
g2
Ntp58
Rp59
(dp60
g12
I4
sg13
I9
sg14
(lp61
F-0.1574831586882548
aF-0.01727609113852066
aF0.9873705441244152
aF0.0
aF0.02204507216133219
aF-0.9996592994107449
aF-0.013974973882625717
aF0.0
aF0.9872755793206736
aF0.019565831865574798
aF0.15781035675910637
aF0.0
aF21.11727545489326
aF-1.1403986318535966
aF4.217493831185838
aF1.0
asg16
VLeftClavicle
p62
sbag0
(g8
g2
Ntp63
Rp64
(dp65
g12
I9
sg13
I10
sg14
(lp66
F0.8950950251633392
aF-0.015418930271692144
aF-0.4456087437619664
aF0.0
aF0.01871180271508728
aF0.9998204459718656
aF0.002990694864309122
aF0.0
aF0.44548261960147534
aF-0.011015098996216437
aF0.8952228232273297
aF0.0
aF21.74528630065377
aF2.0809193940467957e-15
aF4.939191416974964e-15
aF1.0
asg16
VLeftArm
p67
sbag0
(g8
g2
Ntp68
Rp69
(dp70
g12
I10
sg13
I11
sg14
(lp71
F0.8958476385406917
aF-0.44397564729185746
aF0.018510352045336367
aF0.0
aF0.4187476515072168
aF0.8574151250967054
aF0.29914830371003537
aF0.0
aF-0.14868561759046028
aF-0.2602401350045324
aF0.954027074696817
aF0.0
aF37.998044569133306
aF-3.3789160705510746e-16
aF-3.648015049761977e-15
aF1.0
asg16
VLeftForeArm
p72
sbag0
(g8
g2
Ntp73
Rp74
(dp75
g12
I11
sg13
I12
sg14
(lp76
F0.9996281000352253
aF-0.02333401151834511
aF0.014113310257603115
aF0.0
aF0.02314276940353279
aF0.9996401322320616
aF0.013565332852580495
aF0.0
aF-0.014424764965174789
aF-0.01323366682095824
aF0.9998083797499255
aF0.0
aF25.756609302626714
aF-8.03041444105701e-15
aF-1.1779748183837757e-14
aF1.0
asg16
VLeftHand
p77
sbag0
(g8
g2
Ntp78
Rp79
(dp80
g12
I12
sg13
I13
sg14
(lp81
F0.9148256465735257
aF0.07048838763955775
aF-0.3976498756183713
aF0.0
aF-0.37495446115320497
aF-0.2174998271101234
aF-0.9011675633689755
aF0.0
aF-0.1500106277323059
aF0.9735117936702371
aF-0.17254448456070004
aF0.0
aF19.333349293064
aF-2.9753977059954195e-14
aF3.730349362740526e-14
aF1.0
asg16
VLeftHandEnd
p82
sbag0
(g8
g2
Ntp83
Rp84
(dp85
g12
I4
sg13
I14
sg14
(lp86
F-0.15748421337310625
aF-0.01727683791986591
aF-0.9873703628374435
aF0.0
aF0.022045083369154235
aF-0.9996592889144555
aF0.013975707005092167
aF0.0
aF-0.9872754108340291
aF-0.01956570874095355
aF0.1578114260881106
aF0.0
aF21.11726347786798
aF-1.1403180258239385
aF-4.217485581770681
aF1.0
asg16
VRightClavicle
p87
sbag0
(g8
g2
Ntp88
Rp89
(dp90
g12
I14
sg13
I15
sg14
(lp91
F0.8950940115467676
aF-0.015419196472696994
aF0.4456107705983457
aF0.0
aF0.01871215878053719
aF0.9998204391224649
aF-0.0029907568830397175
aF0.0
aF-0.44548464126935633
aF0.011015348069754904
aF0.8952218141332432
aF0.0
aF21.74531803991265
aF1.3957747718035263e-16
aF8.004881479894976e-15
aF1.0
asg16
VRightArm
p92
sbag0
(g8
g2
Ntp93
Rp94
(dp95
g12
I15
sg13
I16
sg14
(lp96
F0.8958476061317859
aF-0.4439755190980604
aF-0.018514994722019104
aF0.0
aF0.4187462261077615
aF0.8574156184035739
aF-0.29914888506916487
aF0.0
aF0.14868982718550744
aF0.2602387283999535
aF0.9540268023133937
aF0.0
aF37.99796102320888
aF-1.110331444842405e-15
aF2.807595735759838e-14
aF1.0
asg16
VRightForeArm
p97
sbag0
(g8
g2
Ntp98
Rp99
(dp100
g12
I16
sg13
I17
sg14
(lp101
F0.9988416286251615
aF-0.01220501028943445
aF-0.04654501744837825
aF0.0
aF0.011893150832542746
aF0.9999049728957362
aF-0.006971236737580104
aF0.0
aF0.04662567842626448
aF0.006409594543479172
aF0.9988918676258601
aF0.0
aF25.756677440021342
aF1.0952935607100311e-14
aF-2.3239439886357793e-14
aF1.0
asg16
VRightHand
p102
sbag0
(g8
g2
Ntp103
Rp104
(dp105
g12
I17
sg13
I18
sg14
(lp106
F0.9148236281768503
aF0.0748918111011337
aF0.39684876963313886
aF0.0
aF-0.3749557516913629
aF-0.2075189516760818
aF0.903517608554933
aF0.0
aF0.15001971071465592
aF-0.9753599855054811
aF-0.16176212496081632
aF0.0
aF19.333223089573274
aF-4.440892098500626e-15
aF-6.328271240363392e-15
aF1.0
asg16
VRightHandEnd
p107
sbag0
(g8
g2
Ntp108
Rp109
(dp110
g12
I1
sg13
I19
sg14
(lp111
F-0.9946804773414981
aF-0.08294641678252093
aF0.06107896478027584
aF0.0
aF-0.08310712708841125
aF0.9965406148922347
aF-9.10896122827366e-05
aF0.0
aF-0.060860113562172274
aF-0.0051667023474492235
aF-0.9981329329122712
aF0.0
aF-0.020256487869076523
aF-2.2040054747596294e-05
aF18.483224111241658
aF1.0
asg16
VLeftUpLeg
p112
sbag0
(g8
g2
Ntp113
Rp114
(dp115
g12
I19
sg13
I20
sg14
(lp116
F0.9999991050207022
aF-0.0013339794648532927
aF0.00010225742969514273
aF0.0
aF0.0013339709703976412
aF0.9999991068081387
aF8.309256821680866e-05
aF0.0
aF-0.0001023681821393219
aF-8.29560854079595e-05
aF0.9999999913195216
aF0.0
aF34.09908092851181
aF-1.3778922122210935e-15
aF4.2173838206427394e-15
aF1.0
asg16
VLeftLeg
p117
sbag0
(g8
g2
Ntp118
Rp119
(dp120
g12
I20
sg13
I21
sg14
(lp121
F0.5336469246025838
aF0.8428615026571032
aF-0.06932133294170315
aF0.0
aF-0.8456740335216159
aF0.5311023765946583
aF-0.05258987167494403
aF0.0
aF-0.007509253590439432
aF0.08668767452248335
aF0.996207236570985
aF0.0
aF23.255587154334872
aF-2.3514548860790996e-12
aF1.836530331023739e-13
aF1.0
asg16
VLeftFoot
p122
sbag0
(g8
g2
Ntp123
Rp124
(dp125
g12
I21
sg13
I22
sg14
(lp126
F0.805765603670459
aF0.5905217206944718
aF-0.045009880355550015
aF0.0
aF-0.5922345431775297
aF0.8034600865261802
aF-0.060910879378364896
aF0.0
aF0.00019444506547777746
aF0.07573629742325114
aF0.9971278631367861
aF0.0
aF13.353590022727975
aF-2.6701828512761937e-15
aF4.477121391720587e-15
aF1.0
asg16
VLeftFootToes
p127
sbag0
(g8
g2
Ntp128
Rp129
(dp130
g12
I22
sg13
I23
sg14
(lp131
F1.0
aF0.0
aF-0.0
aF0.0
aF-0.0
aF0.9999999445516373
aF-0.0003330115947584217
aF0.0
aF0.0
aF0.0003330115947584217
aF0.9999999445516373
aF0.0
aF5.0
aF-2.1919410473437713e-15
aF3.969121059470772e-15
aF1.0
asg16
VLeftFootToesEnd
p132
sbag0
(g8
g2
Ntp133
Rp134
(dp135
g12
I1
sg13
I24
sg14
(lp136
F-0.99454342487951
aF-0.08294916665548574
aF-0.06326777837173662
aF0.0
aF-0.08310992650377541
aF0.9965403814290019
aF-9.109268058362166e-05
aF0.0
aF0.0630564520526788
aF0.005167584784003092
aF-0.9979965831214195
aF0.0
aF0.020256345221255856
aF3.6940951977260106e-05
aF-18.48314972473331
aF1.0
asg16
VRightUpLeg
p137
sbag0
(g8
g2
Ntp138
Rp139
(dp140
g12
I24
sg13
I25
sg14
(lp141
F0.9999991068056941
aF-0.0013326061188138416
aF-0.00010270708839139078
aF0.0
aF0.001332597594674887
aF0.9999991086453969
aF-8.301844666510953e-05
aF0.0
aF0.00010281762773295511
aF8.288150529455925e-05
aF0.9999999912795957
aF0.0
aF34.09901582691176
aF-7.405469720924525e-15
aF-9.14817267078094e-15
aF1.0
asg16
VRightLeg
p142
sbag0
(g8
g2
Ntp143
Rp144
(dp145
g12
I25
sg13
I26
sg14
(lp146
F0.5336421292824325
aF0.8428680518030626
aF0.06927860495579719
aF0.0
aF-0.8456767985997925
aF0.5310972765366664
aF0.05259691212743962
aF0.0
aF0.007538578441428429
aF-0.08665523703184616
aF0.9962098371979856
aF0.0
aF23.25564351021865
aF-1.760319849413404e-12
aF-1.3482064856878972e-13
aF1.0
asg16
VRightFoot
p147
sbag0
(g8
g2
Ntp148
Rp149
(dp150
g12
I26
sg13
I27
sg14
(lp151
F0.8057661102042687
aF0.5905189629474085
aF0.04503698530984768
aF0.0
aF-0.5922338411638891
aF0.8034623728665238
aF0.06088754197666755
aF0.0
aF-0.00023027493932646637
aF-0.07573354466293128
aF0.9971280645866107
aF0.0
aF13.353664347904761
aF-4.880312462745423e-15
aF1.339965464974835e-15
aF1.0
asg16
VRightFootToes
p152
sbag0
(g8
g2
Ntp153
Rp154
(dp155
g12
I27
sg13
I28
sg14
(lp156
F1.0
aF0.0
aF0.0
aF0.0
aF0.0
aF0.9999999443993337
aF0.0003334686332936875
aF0.0
aF0.0
aF-0.0003334686332936875
aF0.9999999443993337
aF0.0
aF4.999999999999999
aF9.35364771324738e-16
aF1.274073417636061e-14
aF1.0
asg16
VRightFootToesEnd
p157
sbasS'_anchors'
p158
(lp159
g0
(g8
g2
Ntp160
Rp161
(dp162
g12
I1
sg13
I0
sg14
(lp163
F0.9999909701224864
aF0.004106143051910659
aF0.0010951085451929789
aF0.0
aF-0.004106142626402852
aF0.9999915697573547
aF-2.6368988954062946e-06
aF0.0
aF-0.0010951101406462978
aF-1.8597967934226503e-06
aF0.9999994003649807
aF0.0
aF2.263074479791221
aF-29.5477033377777
aF-12.479536184004836
aF1.0
asg16
S'anchor'
p164
sbag0
(g8
g2
Ntp165
Rp166
(dp167
g12
I1
sg13
I1
sg14
(lp168
F0.9999909701224864
aF0.004106143051910659
aF0.0010951085451929789
aF0.0
aF-0.004106142626402852
aF0.9999915697573547
aF-2.6368988954062946e-06
aF0.0
aF-0.0010951101406462978
aF-1.8597967934226503e-06
aF0.9999994003649807
aF0.0
aF2.2356341098246983
aF-29.547703337778106
aF12.556143040030642
aF1.0
asg16
g164
sbag0
(g8
g2
Ntp169
Rp170
(dp171
g12
I1
sg13
I2
sg14
(lp172
F0.9999909701224864
aF0.004106143051910659
aF0.0010951085451929789
aF0.0
aF-0.004106142626402852
aF0.9999915697573547
aF-2.6368988954062946e-06
aF0.0
aF-0.0010951101406462978
aF-1.8597967934226503e-06
aF0.9999994003649807
aF0.0
aF-13.147759466216554
aF-0.7560382808434495
aF0.021427413017426608
aF1.0
asg16
g164
sbag0
(g8
g2
Ntp173
Rp174
(dp175
g12
I2
sg13
I3
sg14
(lp176
F0.9999997449687393
aF0.0007141854943798072
aF1.2393330188360953e-06
aF0.0
aF-0.0007141854948593738
aF0.9999997449694322
aF3.8655611167969176e-07
aF0.0
aF-1.2390566300005662e-06
aF-3.874411267611523e-07
aF0.9999999999991573
aF0.0
aF2.755737555345858
aF26.830562704443008
aF0.040937838675497946
aF1.0
asg16
g164
sbag0
(g8
g2
Ntp177
Rp178
(dp179
g12
I2
sg13
I4
sg14
(lp180
F0.9999997449687393
aF0.0007141854943798072
aF1.2393330188360953e-06
aF0.0
aF-0.0007141854948593738
aF0.9999997449694322
aF3.8655611167969176e-07
aF0.0
aF-1.2390566300005662e-06
aF-3.874411267611523e-07
aF0.9999999999991573
aF0.0
aF5.348394013825029
aF-1.864708636490767
aF32.142396756655856
aF1.0
asg16
g164
sbag0
(g8
g2
Ntp181
Rp182
(dp183
g12
I2
sg13
I5
sg14
(lp184
F0.9999997449687393
aF0.0007141854943798072
aF1.2393330188360953e-06
aF0.0
aF-0.0007141854948593738
aF0.9999997449694322
aF3.8655611167969176e-07
aF0.0
aF-1.2390566300005662e-06
aF-3.874411267611523e-07
aF0.9999999999991573
aF0.0
aF5.348447153459648
aF-1.8647086367290457
aF-32.06051678725459
aF1.0
asg16
g164
sbag0
(g8
g2
Ntp185
Rp186
(dp187
g12
I4
sg13
I6
sg14
(lp188
F0.9978743032767992
aF-0.06516805091292364
aF-2.3067230114197804e-07
aF0.0
aF0.06516805091258952
aF0.997874303276076
aF-1.241028581806265e-06
aF0.0
aF3.110573755906846e-07
aF1.223358067151576e-06
aF0.9999999999992033
aF0.0
aF-1.928936610031289
aF29.968100841875913
aF-18.97748021407994
aF1.0
asg16
g164
sbag0
(g8
g2
Ntp189
Rp190
(dp191
g12
I4
sg13
I7
sg14
(lp192
F0.9978743032767992
aF-0.06516805091292364
aF-2.3067230114197804e-07
aF0.0
aF0.06516805091258952
aF0.997874303276076
aF-1.241028581806265e-06
aF0.0
aF3.110573755906846e-07
aF1.223358067151576e-06
aF0.9999999999992033
aF0.0
aF-1.9289209876733373
aF29.968098342779626
aF19.059412687996705
aF1.0
asg16
g164
sbag0
(g8
g2
Ntp193
Rp194
(dp195
g12
I7
sg13
I8
sg14
(lp196
F1.0
aF0.0
aF-0.0
aF0.0
aF-0.0
aF0.9999999999653222
aF-8.328004040179596e-06
aF0.0
aF0.0
aF8.328004040179596e-06
aF0.9999999999653222
aF0.0
aF19.892185560978117
aF38.24470857649046
aF0.04083810774440634
aF1.0
asg16
g164
sbag0
(g8
g2
Ntp197
Rp198
(dp199
g12
I7
sg13
I9
sg14
(lp200
F1.0
aF0.0
aF-0.0
aF0.0
aF-0.0
aF0.9999999999653222
aF-8.328004040179596e-06
aF0.0
aF0.0
aF8.328004040179596e-06
aF0.9999999999653222
aF0.0
aF9.94636229284646
aF41.51605838104857
aF0.04088750858549454
aF1.0
asg16
g164
sbag0
(g8
g2
Ntp201
Rp202
(dp203
g12
I7
sg13
I10
sg14
(lp204
F1.0
aF0.0
aF-0.0
aF0.0
aF-0.0
aF0.9999999999653222
aF-8.328004040179596e-06
aF0.0
aF0.0
aF8.328004040179596e-06
aF0.9999999999653222
aF0.0
aF2.367241351250179
aF33.703464153572845
aF0.04092515400337007
aF1.0
asg16
g164
sbag0
(g8
g2
Ntp205
Rp206
(dp207
g12
I7
sg13
I11
sg14
(lp208
F1.0
aF0.0
aF-0.0
aF0.0
aF-0.0
aF0.9999999999653222
aF-8.328004040179596e-06
aF0.0
aF0.0
aF8.328004040179596e-06
aF0.9999999999653222
aF0.0
aF2.149707286374579
aF6.380822371888839
aF15.584107257208316
aF1.0
asg16
g164
sbag0
(g8
g2
Ntp209
Rp210
(dp211
g12
I7
sg13
I12
sg14
(lp212
F1.0
aF0.0
aF-0.0
aF0.0
aF-0.0
aF0.9999999999653222
aF-8.328004040179596e-06
aF0.0
aF0.0
aF8.328004040179596e-06
aF0.9999999999653222
aF0.0
aF30.45138970400986
aF-3.2199261989804584
aF10.224761247293207
aF1.0
asg16
g164
sbag0
(g8
g2
Ntp213
Rp214
(dp215
g12
I7
sg13
I13
sg14
(lp216
F1.0
aF0.0
aF-0.0
aF0.0
aF-0.0
aF0.9999999999653222
aF-8.328004040179596e-06
aF0.0
aF0.0
aF8.328004040179596e-06
aF0.9999999999653222
aF0.0
aF18.82953068494685
aF18.09450812884453
aF7.653575172706898
aF1.0
asg16
g164
sbag0
(g8
g2
Ntp217
Rp218
(dp219
g12
I7
sg13
I14
sg14
(lp220
F1.0
aF0.0
aF-0.0
aF0.0
aF-0.0
aF0.9999999999653222
aF-8.328004040179596e-06
aF0.0
aF0.0
aF8.328004040179596e-06
aF0.9999999999653222
aF0.0
aF2.1495528806390225
aF6.380822371972604
aF-15.502254787601627
aF1.0
asg16
g164
sbag0
(g8
g2
Ntp221
Rp222
(dp223
g12
I7
sg13
I15
sg14
(lp224
F1.0
aF0.0
aF-0.0
aF0.0
aF-0.0
aF0.9999999999653222
aF-8.328004040179596e-06
aF0.0
aF0.0
aF8.328004040179596e-06
aF0.9999999999653222
aF0.0
aF30.451288536543647
aF-3.219926198925581
aF-10.143189926506638
aF1.0
asg16
g164
sbag0
(g8
g2
Ntp225
Rp226
(dp227
g12
I7
sg13
I16
sg14
(lp228
F1.0
aF0.0
aF-0.0
aF0.0
aF-0.0
aF0.9999999999653222
aF-8.328004040179596e-06
aF0.0
aF0.0
aF8.328004040179596e-06
aF0.9999999999653222
aF0.0
aF18.82945506017936
aF18.094508128885554
aF-7.571888400552874
aF1.0
asg16
g164
sbag0
(g8
g2
Ntp229
Rp230
(dp231
g12
I9
sg13
I17
sg14
(lp232
F0.9999999998784811
aF7.225294345117315e-07
aF-1.5572920495278287e-05
aF0.0
aF-2.1059444153263503e-06
aF0.9960299415393504
aF-0.08901884942349637
aF0.0
aF1.544677635157414e-05
aF0.0890188494454746
aF0.9960299414198356
aF0.0
aF25.12400870120347
aF-0.8342880163375829
aF18.281541173495473
aF1.0
asg16
g164
sbag0
(g8
g2
Ntp233
Rp234
(dp235
g12
I14
sg13
I18
sg14
(lp236
F0.9999999999141113
aF2.3265317403466093e-06
aF1.2898247988097441e-05
aF0.0
aF-3.465492743785124e-06
aF0.9960298691739988
aF0.08901965907156145
aF0.0
aF-1.2639933193813669e-05
aF-0.08901965910861445
aF0.9960298690965137
aF0.0
aF25.043239528386074
aF-0.8329805662685252
aF-18.268458124298597
aF1.0
asg16
g164
sbag0
(g8
g2
Ntp237
Rp238
(dp239
g12
I19
sg13
I19
sg14
(lp240
F0.9999999999543238
aF-3.0051498814825935e-06
aF-9.07312645042176e-06
aF0.0
aF2.2677062368198475e-06
aF0.9967779393971579
aF-0.08021059484889423
aF0.0
aF9.284937146745052e-06
aF0.08021059482465531
aF0.9967779393584435
aF0.0
aF11.23778255336677
aF16.89817408357891
aF-1.9852933636785874
aF1.0
asg16
g164
sbag0
(g8
g2
Ntp241
Rp242
(dp243
g12
I19
sg13
I20
sg14
(lp244
F0.9999999999543238
aF-3.0051498814825935e-06
aF-9.07312645042176e-06
aF0.0
aF2.2677062368198475e-06
aF0.9967779393971579
aF-0.08021059484889423
aF0.0
aF9.284937146745052e-06
aF0.08021059482465531
aF0.9967779393584435
aF0.0
aF13.539215742150668
aF-0.6077025191797081
aF-15.215019026333138
aF1.0
asg16
g164
sbag0
(g8
g2
Ntp245
Rp246
(dp247
g12
I24
sg13
I21
sg14
(lp248
F0.9999999999991305
aF5.703382724431271e-07
aF-1.1890214911192327e-06
aF0.0
aF-4.7313330477581455e-07
aF0.996778253337144
aF0.08020669344841809
aF0.0
aF1.2309357120779015e-06
aF-0.08020669344778579
aF0.9967782533365471
aF0.0
aF11.233300842289387
aF16.898146119725027
aF1.9137372248625726
aF1.0
asg16
g164
sbag0
(g8
g2
Ntp249
Rp250
(dp251
g12
I24
sg13
I22
sg14
(lp252
F0.9999999999991305
aF5.703382724431271e-07
aF-1.1890214911192327e-06
aF0.0
aF-4.7313330477581455e-07
aF0.996778253337144
aF0.08020669344841809
aF0.0
aF1.2309357120779015e-06
aF-0.08020669344778579
aF0.9967782533365471
aF0.0
aF13.534896096150206
aF-0.6077263408929214
aF15.143440174760265
aF1.0
asg16
g164
sbasb.