ccopy_reg
_reconstructor
p0
(c__main__
DataSkeleton
p1
c__builtin__
object
p2
Ntp3
Rp4
(dp5
S'_bones'
p6
(lp7
g0
(c__main__
DataBone
p8
g2
Ntp9
Rp10
(dp11
S'_parentId'
p12
I-1
sS'_id'
p13
I0
sS'_matrix'
p14
(lp15
F1.0
aF0.0
aF-0.0
aF0.0
aF-0.0
aF2.220446049250313e-16
aF-1.0
aF0.0
aF0.0
aF1.0
aF2.220446049250313e-16
aF0.0
aF0.0
aF0.0
aF0.0
aF1.0
asS'_name'
p16
S'BaseSkeleton'
p17
sbag0
(g8
g2
Ntp18
Rp19
(dp20
g12
I0
sg13
I1
sg14
(lp21
F0.0
aF-2.6631610908689424e-07
aF0.9999999999999645
aF0.0
aF-1.46473859966314e-06
aF0.9999999999988918
aF2.663161090866086e-07
aF0.0
aF-0.9999999999989273
aF-1.4647385996630884e-06
aF-3.9013237085328e-13
aF0.0
aF0.0
aF0.0
aF98.01000213623047
aF1.0
asg16
VHips
p22
sbag0
(g8
g2
Ntp23
Rp24
(dp25
g12
I1
sg13
I2
sg14
(lp26
F0.9988898514002653
aF-0.047106950329316916
aF4.7656708902737337e-07
aF0.0
aF0.04710695032995617
aF0.9988898513993206
aF-1.433257923167031e-06
aF0.0
aF-4.085216189446305e-07
aF1.4541164160822728e-06
aF0.9999999999988594
aF0.0
aF7.2397990226745605
aF-0.013531177304685114
aF-0.002410888671875
aF1.0
asg16
VSpine
p27
sbag0
(g8
g2
Ntp28
Rp29
(dp30
g12
I2
sg13
I3
sg14
(lp31
F0.9944695487603521
aF-0.10502531403499701
aF-4.815233272206194e-07
aF0.0
aF0.10502531403564858
aF0.9944695487590728
aF1.624674150389226e-06
aF0.0
aF3.082283730888862e-07
aF-1.666261107877018e-06
aF0.9999999999985643
aF0.0
aF17.033470153808594
aF-0.011990547180175781
aF-2.2593885660171942e-05
aF1.0
asg16
VSpine1
p32
sbag0
(g8
g2
Ntp33
Rp34
(dp35
g12
I3
sg13
I4
sg14
(lp36
F0.9978830368026448
aF0.06503418225303713
aF4.5855837063800095e-07
aF0.0
aF-0.06503418225113945
aF0.9978830367972175
aF-3.3598786190907137e-06
aF0.0
aF-6.760945779030606e-07
aF3.32294391105766e-06
aF0.9999999999942505
aF0.0
aF15.128836683700243
aF-0.010683059055622834
aF-2.4253968149419262e-06
aF1.0
asg16
VSpine2
p37
sbag0
(g8
g2
Ntp38
Rp39
(dp40
g12
I4
sg13
I5
sg14
(lp41
F0.9463037826360232
aF0.32327875118657806
aF-2.4648570362686293e-08
aF0.0
aF-0.3232787511865776
aF0.9463037826360234
aF2.1684028226813284e-08
aF0.0
aF3.033502093663893e-08
aF-1.2551318888436e-08
aF0.9999999999999994
aF0.0
aF21.197659826557384
aF0.7458666865984451
aF3.543686696487816e-07
aF1.0
asg16
VNeck
p42
sbag0
(g8
g2
Ntp43
Rp44
(dp45
g12
I5
sg13
I6
sg14
(lp46
F0.9902680502095422
aF-0.1391732328222337
aF-0.0
aF0.0
aF0.1391732328222337
aF0.9902680502095422
aF0.0
aF0.0
aF0.0
aF-0.0
aF1.0
aF0.0
aF5.0644982976319
aF-0.00408935498126084
aF0.0001261741852140721
aF1.0
asg16
VNeck1
p47
sbag0
(g8
g2
Ntp48
Rp49
(dp50
g12
I6
sg13
I7
sg14
(lp51
F0.999985497798356
aF0.0053855540808741675
aF4.6480961515441053e-07
aF0.0
aF-0.0053855540842633
aF0.9999854977693573
aF7.627332820063688e-06
aF0.0
aF-4.237254609828872e-07
aF-7.629725464266427e-06
aF0.9999999999708039
aF0.0
aF5.366088227499887
aF6.484984578847275e-05
aF-1.9953593762608163e-07
aF1.0
asg16
VHead
p52
sbag0
(g8
g2
Ntp53
Rp54
(dp55
g12
I7
sg13
I8
sg14
(lp56
F1.0
aF-6.938893903907228e-18
aF-8.602678370551487e-23
aF0.0
aF6.938893903907228e-18
aF1.0
aF-2.5423396126817306e-21
aF0.0
aF8.602678370551489e-23
aF2.5423396126817306e-21
aF1.0
aF0.0
aF18.21794584735846
aF-2.929725530560467e-15
aF9.989896201560268e-16
aF1.0
asg16
VHeadEnd
p57
sbag0
(g8
g2
Ntp58
Rp59
(dp60
g12
I4
sg13
I9
sg14
(lp61
F-0.15603777610834801
aF-0.02750544331485538
aF0.9873680484070844
aF0.0
aF-0.0007873591493306915
aF-0.9996084289407703
aF-0.02797085726492501
aF0.0
aF0.9877507744834884
aF-0.005141923630133032
aF0.155955019568627
aF0.0
aF15.596754122167198
aF-2.8270164934382933
aF3.0582377910623944
aF1.0
asg16
VLeftClavicle
p62
sbag0
(g8
g2
Ntp63
Rp64
(dp65
g12
I9
sg13
I10
sg14
(lp66
F0.88676386419004
aF-0.0238045084763316
aF-0.4616093527463978
aF0.0
aF0.05041142429075335
aF0.9976964758343527
aF0.04539196414223992
aF0.0
aF0.45946549105207646
aF-0.0635223384638271
aF0.8859212013764888
aF0.0
aF15.071186020568508
aF7.579779216726479e-06
aF-0.00012179364452435948
aF1.0
asg16
VLeftArm
p67
sbag0
(g8
g2
Ntp68
Rp69
(dp70
g12
I10
sg13
I11
sg14
(lp71
F0.9228477115975571
aF-0.3851650311219222
aF-2.9590728604366805e-08
aF0.0
aF0.3851650311218819
aF0.9228477115974195
aF5.346023318250016e-07
aF0.0
aF-1.7860238759818872e-07
aF-5.047538524432406e-07
aF0.9999999999998567
aF0.0
aF29.65286320966039
aF-1.3353094424906065e-05
aF0.0002153159133513327
aF1.0
asg16
VLeftForeArm
p72
sbag0
(g8
g2
Ntp73
Rp74
(dp75
g12
I11
sg13
I12
sg14
(lp76
F0.9859631169525601
aF0.11278147510826901
aF-0.12311405639322862
aF0.0
aF-0.1233633098005187
aF-0.004792988593095071
aF-0.9923499992721357
aF0.0
aF-0.11250878100954353
aF0.9936082558698621
aF0.00918738608077485
aF0.0
aF27.267958376637086
aF0.00022524065366269497
aF-0.0003494576298237462
aF1.0
asg16
VLeftHand
p77
sbag0
(g8
g2
Ntp78
Rp79
(dp80
g12
I12
sg13
I13
sg14
(lp81
F1.0
aF9.627715291671279e-17
aF2.7755575615628926e-17
aF0.0
aF-9.627715291671279e-17
aF1.0
aF2.2638141361497333e-16
aF0.0
aF-2.77555756156289e-17
aF-2.2638141361497333e-16
aF1.0
aF0.0
aF20.0
aF5.18365496318209e-14
aF9.430762676080015e-15
aF1.0
asg16
VLeftHandEnd
p82
sbag0
(g8
g2
Ntp83
Rp84
(dp85
g12
I4
sg13
I14
sg14
(lp86
F-0.15603730213979783
aF-0.027505102687609022
aF-0.9873681327990476
aF0.0
aF-0.0007883792208324243
aF-0.9996084333494957
aF0.027970670974632718
aF0.0
aF-0.9877508485438713
aF0.005142888557132518
aF0.1559545186846194
aF0.0
aF15.596739817054015
aF-2.8269278017362147
aF-3.0582721233358003
aF1.0
asg16
VRightClavicle
p87
sbag0
(g8
g2
Ntp88
Rp89
(dp90
g12
I14
sg13
I15
sg14
(lp91
F0.8867642621450513
aF-0.023804572702601966
aF0.4616085849513516
aF0.0
aF0.05041167655743054
aF0.997696441863069
aF-0.04539243065138496
aF0.0
aF-0.45946469532382095
aF0.06352284795424654
aF0.885921577533119
aF0.0
aF15.07122405682124
aF5.6724255443896254e-06
aF0.00018282879466369195
aF1.0
asg16
VRightArm
p92
sbag0
(g8
g2
Ntp93
Rp94
(dp95
g12
I15
sg13
I16
sg14
(lp96
F0.9228501092854577
aF-0.38515928625909546
aF4.5041558701393503e-07
aF0.0
aF0.38515928625913454
aF0.9228501092855513
aF0.0
aF0.0
aF-4.156660736997257e-07
aF1.7348174601427634e-07
aF0.9999999999998985
aF0.0
aF29.652786022597716
aF-1.0418013516755309e-05
aF-0.00012520878453869955
aF1.0
asg16
VRightForeArm
p97
sbag0
(g8
g2
Ntp98
Rp99
(dp100
g12
I16
sg13
I17
sg14
(lp101
F0.9859622943841636
aF0.11278926998156995
aF0.12311350303577788
aF0.0
aF-0.12336264728108277
aF-0.00479456155419955
aF0.9923500740340107
aF0.0
aF0.1125167156849111
aF-0.9936073634774089
aF0.009186726019282498
aF0.0
aF27.268043768175463
aF4.650592976673806e-05
aF0.0003634393189599905
aF1.0
asg16
VRightHand
p102
sbag0
(g8
g2
Ntp103
Rp104
(dp105
g12
I17
sg13
I18
sg14
(lp106
F1.0
aF6.158268339717665e-17
aF6.766944819491647e-33
aF0.0
aF-6.158268339717665e-17
aF1.0
aF2.1976778036281177e-16
aF0.0
aF6.766944819491647e-33
aF-2.1976778036281177e-16
aF1.0
aF0.0
aF20.0
aF0.0
aF-1.7763568394002505e-15
aF1.0
asg16
VRightHandEnd
p107
sbag0
(g8
g2
Ntp108
Rp109
(dp110
g12
I1
sg13
I19
sg14
(lp111
F-0.9987220294740462
aF-0.04122995965541372
aF0.029230091858481865
aF0.0
aF-0.038818848543767284
aF0.9961392028094966
aF0.07873871743809785
aF0.0
aF-0.03236363454524828
aF0.07750341316918574
aF-0.9964666658278882
aF0.0
aF0.0
aF6.110458798502808e-06
aF8.737859725952148
aF1.0
asg16
VLeftUpLeg
p112
sbag0
(g8
g2
Ntp113
Rp114
(dp115
g12
I19
sg13
I20
sg14
(lp116
F0.9969258151338785
aF-0.07835125445791907
aF6.672515143338263e-06
aF0.0
aF0.07835125444614982
aF0.9969258151551116
aF2.0077475037122708e-06
aF0.0
aF-6.809312133957936e-06
aF-1.478775384929881e-06
aF0.9999999999757232
aF0.0
aF43.689322031816566
aF9.012222290039062e-05
aF0.0003070831115792316
aF1.0
asg16
VLeftLeg
p117
sbag0
(g8
g2
Ntp118
Rp119
(dp120
g12
I20
sg13
I21
sg14
(lp121
F0.9926098670808545
aF0.11695579532097937
aF0.032357282249371205
aF0.0
aF-0.11132599616639237
aF0.9837674069759133
aF-0.1407416482404846
aF0.0
aF-0.048292591060003054
aF0.13609934207307942
aF0.9895174554983789
aF0.0
aF43.68928773151787
aF-7.082532357038929e-06
aF-1.335142165181935e-05
aF1.0
asg16
VLeftFoot
p122
sbag0
(g8
g2
Ntp123
Rp124
(dp125
g12
I21
sg13
I22
sg14
(lp126
F5.72579634350312e-06
aF0.999999999960808
aF6.752715563370946e-06
aF0.0
aF-0.9999999999827593
aF5.7257875474281406e-06
aF1.3026185767225584e-06
aF0.0
aF1.3025799120568226e-06
aF-6.752723021783208e-06
aF0.999999999976352
aF0.0
aF10.340980651824813
aF14.229317796439965
aF3.542832104841409e-05
aF1.0
asg16
VLeftFootToes
p127
sbag0
(g8
g2
Ntp128
Rp129
(dp130
g12
I1
sg13
I23
sg14
(lp131
F-0.9987220340921144
aF-0.04122995984606012
aF-0.02922993380085716
aF0.0
aF-0.03881886098374597
aF0.9961392022959404
aF-0.07873871780218389
aF0.0
aF0.032363477112863304
aF-0.07750341966842247
aF-0.9964666704355276
aF0.0
aF0.0
aF5.5277123465202715e-06
aF-8.737859725952147
aF1.0
asg16
VRightUpLeg
p132
sbag0
(g8
g2
Ntp133
Rp134
(dp135
g12
I23
sg13
I24
sg14
(lp136
F0.9969260831505112
aF-0.0783478444769215
aF0.0
aF0.0
aF0.07834784447684223
aF0.9969260831495025
aF-1.422590050236049e-06
aF0.0
aF1.1145686401030993e-07
aF1.4182171267107133e-06
aF0.9999999999989881
aF0.0
aF43.68922666439627
aF1.5735626220703125e-05
aF4.7683712995905125e-06
aF1.0
asg16
VRightLeg
p137
sbag0
(g8
g2
Ntp138
Rp139
(dp140
g12
I24
sg13
I25
sg14
(lp141
F0.9926097426869215
aF0.11695628319772455
aF-0.03235933472086792
aF0.0
aF-0.11132637480491178
aF0.9837678767778469
aF0.14073806483252224
aF0.0
aF0.0482942749795441
aF-0.13609552689409224
aF0.9895178980511771
aF0.0
aF43.689353791969125
aF5.46879094898145e-07
aF1.9073479400333326e-06
aF1.0
asg16
VRightFoot
p142
sbag0
(g8
g2
Ntp143
Rp144
(dp145
g12
I25
sg13
I26
sg14
(lp146
F9.853696033346182e-06
aF0.9999999999476638
aF-2.752596688443293e-06
aF0.0
aF-0.9999999999483676
aF9.853702870099568e-06
aF2.483766442956975e-06
aF0.0
aF2.4837935660968735e-06
aF2.752572214021624e-06
aF0.999999999993127
aF0.0
aF10.341053127852101
aF14.229346526204468
aF-0.00041870699096691055
aF1.0
asg16
VRightFootToes
p147
sbasS'_anchors'
p148
(lp149
g0
(g8
g2
Ntp150
Rp151
(dp152
g12
I1
sg13
I0
sg14
(lp153
F1.4647385996324756e-06
aF1.1102230246251562e-16
aF-0.999999999998927
aF0.0
aF0.9999999999988917
aF2.663161092764099e-07
aF1.4647385995769642e-06
aF0.0
aF2.663161091098764e-07
aF-0.9999999999999645
aF3.9013237085328e-13
aF0.0
aF11.10656032831686
aF-14.413134961060631
aF8.45146597902691
aF1.0
asg16
S'anchor'
p154
sbag0
(g8
g2
Ntp155
Rp156
(dp157
g12
I1
sg13
I1
sg14
(lp158
F1.4647385996324756e-06
aF1.1102230246251562e-16
aF-0.999999999998927
aF0.0
aF0.9999999999988917
aF2.663161092764099e-07
aF1.4647385995769642e-06
aF0.0
aF2.663161091098764e-07
aF-0.9999999999999645
aF3.9013237085328e-13
aF0.0
aF11.106557109412222
aF-2.3263373393578273
aF19.409422065546273
aF1.0
asg16
g154
sbag0
(g8
g2
Ntp159
Rp160
(dp161
g12
I1
sg13
I2
sg14
(lp162
F1.4647385996324756e-06
aF1.1102230246251562e-16
aF-0.999999999998927
aF0.0
aF0.9999999999988917
aF2.663161092764099e-07
aF1.4647385995769642e-06
aF0.0
aF2.663161091098764e-07
aF-0.9999999999999645
aF3.9013237085328e-13
aF0.0
aF11.10655262253188
aF14.521596023617452
aF8.451423597209565
aF1.0
asg16
g154
sbag0
(g8
g2
Ntp163
Rp164
(dp165
g12
I1
sg13
I3
sg14
(lp166
F1.4647385996324756e-06
aF1.1102230246251562e-16
aF0.999999999998927
aF0.0
aF0.9999999999988917
aF2.663161092764099e-07
aF-1.4647385995769642e-06
aF0.0
aF2.663161091098764e-07
aF-0.9999999999999645
aF-3.9013237085328e-13
aF0.0
aF11.10656032831686
aF-14.413159719375672
aF-8.451423756040406
aF1.0
asg16
g154
sbag0
(g8
g2
Ntp167
Rp168
(dp169
g12
I1
sg13
I4
sg14
(lp170
F1.4647385996324756e-06
aF1.1102230246251562e-16
aF0.999999999998927
aF0.0
aF0.9999999999988917
aF2.663161092764099e-07
aF-1.4647385995769642e-06
aF0.0
aF2.663161091098764e-07
aF-0.9999999999999645
aF-3.9013237085328e-13
aF0.0
aF11.10655262253188
aF14.521571265302411
aF-8.45146613785775
aF1.0
asg16
g154
sbag0
(g8
g2
Ntp171
Rp172
(dp173
g12
I1
sg13
I5
sg14
(lp174
F1.4647385996324756e-06
aF1.1102230246251562e-16
aF0.999999999998927
aF0.0
aF0.9999999999988917
aF2.663161092764099e-07
aF-1.4647385995769642e-06
aF0.0
aF2.663161091098764e-07
aF-0.9999999999999645
aF-3.9013237085328e-13
aF0.0
aF11.106557109412222
aF-2.326394198807238
aF-19.409415250510797
aF1.0
asg16
g154
sbag0
(g8
g2
Ntp175
Rp176
(dp177
g12
I3
sg13
I6
sg14
(lp178
F1.699022306178577e-06
aF0.0
aF-0.9999999999985567
aF0.0
aF0.9884180771155598
aF0.1517554111995996
aF1.6793443607943108e-06
aF0.0
aF0.15175541119938046
aF-0.9884180771169863
aF2.5783582868754706e-07
aF0.0
aF2.140452655268234
aF1.4915331378033159
aF17.769627289440603
aF1.0
asg16
g154
sbag0
(g8
g2
Ntp179
Rp180
(dp181
g12
I3
sg13
I7
sg14
(lp182
F1.699022306178577e-06
aF0.0
aF-0.9999999999985567
aF0.0
aF0.9884180771155598
aF0.1517554111995996
aF1.6793443607943108e-06
aF0.0
aF0.15175541119938046
aF-0.9884180771169863
aF2.5783582868754706e-07
aF0.0
aF-0.28657462391056754
aF17.29931064815205
aF7.385089771815444
aF1.0
asg16
g154
sbag0
(g8
g2
Ntp183
Rp184
(dp185
g12
I3
sg13
I8
sg14
(lp186
F1.699022306178577e-06
aF0.0
aF0.9999999999985567
aF0.0
aF0.9884180771155598
aF0.1517554111995996
aF-1.6793443607943108e-06
aF0.0
aF0.15175541119938046
aF-0.9884180771169863
aF-2.5783582868754706e-07
aF0.0
aF2.1404554747502686
aF1.4914728299260673
aF-17.764778891550268
aF1.0
asg16
g154
sbag0
(g8
g2
Ntp187
Rp188
(dp189
g12
I3
sg13
I9
sg14
(lp190
F1.699022306178577e-06
aF0.0
aF0.9999999999985567
aF0.0
aF0.9884180771155598
aF0.1517554111995996
aF-1.6793443607943108e-06
aF0.0
aF0.15175541119938046
aF-0.9884180771169863
aF-2.5783582868754706e-07
aF0.0
aF-0.28657345234917386
aF17.299285588804416
aF-7.3802954160568905
aF1.0
asg16
g154
sbag0
(g8
g2
Ntp191
Rp192
(dp193
g12
I4
sg13
I10
sg14
(lp194
F1.7318358386253512e-06
aF-1.1102230246251568e-16
aF-0.9999999999985006
aF0.0
aF0.996194921492444
aF0.08715318921122296
aF1.7252460672856355e-06
aF0.0
aF0.08715318921109229
aF-0.9961949214939381
aF1.5093501659624311e-07
aF0.0
aF5.026617159910586
aF17.923127695571445
aF12.136856817275024
aF1.0
asg16
g154
sbag0
(g8
g2
Ntp195
Rp196
(dp197
g12
I4
sg13
I11
sg14
(lp198
F1.7318358386253512e-06
aF-1.1102230246251568e-16
aF0.9999999999985006
aF0.0
aF0.996194921492444
aF0.08715318921122296
aF-1.7252460672856355e-06
aF0.0
aF0.08715318921109229
aF-0.9961949214939381
aF-1.5093501659624311e-07
aF0.0
aF5.026605274140707
aF17.92316800951027
aF-12.131941786339013
aF1.0
asg16
g154
sbag0
(g8
g2
Ntp199
Rp200
(dp201
g12
I7
sg13
I12
sg14
(lp202
F5.950909412910653e-06
aF-5.5511151231257815e-17
aF-0.9999999999822929
aF0.0
aF0.9942073076029396
aF-0.1074794374469348
aF5.91643762520855e-06
aF0.0
aF-0.10747943744503172
aF-0.9942073076205433
aF-6.396003957576112e-07
aF0.0
aF1.711185624890362
aF17.932163176480298
aF0.002187273007230565
aF1.0
asg16
g154
sbag0
(g8
g2
Ntp203
Rp204
(dp205
g12
I7
sg13
I13
sg14
(lp206
F5.9509094132437196e-06
aF1.1102230246251563e-16
aF0.999999999982293
aF0.0
aF0.9942073076029398
aF-0.10747943744693503
aF-5.916437625652639e-06
aF0.0
aF-0.10747943744503177
aF-0.9942073076205435
aF6.396003962017004e-07
aF0.0
aF5.043955622544047
aF4.355828437158692
aF-8.021252417585004
aF1.0
asg16
g154
sbag0
(g8
g2
Ntp207
Rp208
(dp209
g12
I7
sg13
I14
sg14
(lp210
F5.950909412910653e-06
aF-5.5511151231257815e-17
aF-0.9999999999822929
aF0.0
aF0.9942073076029396
aF-0.1074794374469348
aF5.91643762520855e-06
aF0.0
aF-0.10747943744503172
aF-0.9942073076205433
aF-6.396003957576112e-07
aF0.0
aF5.043965189207029
aF4.3559234512133855
aF8.025783759477601
aF1.0
asg16
g154
sbag0
(g8
g2
Ntp211
Rp212
(dp213
g12
I12
sg13
I15
sg14
(lp214
F-0.6856450428972792
aF0.6808573672138134
aF-0.2575346979749765
aF0.0
aF-0.6492375765743333
aF-0.7319717629898286
aF-0.20665891548503096
aF0.0
aF-0.3292133720161967
aF0.02550654222423737
aF0.9439109979174352
aF0.0
aF5.5021366500770625
aF5.078416490374622
aF-3.9201355569678498
aF1.0
asg16
g154
sbag0
(g8
g2
Ntp215
Rp216
(dp217
g12
I12
sg13
I16
sg14
(lp218
F-0.6856450428972792
aF0.6808573672138134
aF-0.2575346979749765
aF0.0
aF-0.6492375765743333
aF-0.7319717629898286
aF-0.20665891548503096
aF0.0
aF-0.3292133720161967
aF0.02550654222423737
aF0.9439109979174352
aF0.0
aF5.134964901003286
aF1.5187463438401778
aF5.470096703257129
aF1.0
asg16
g154
sbag0
(g8
g2
Ntp219
Rp220
(dp221
g12
I17
sg13
I17
sg14
(lp222
F-0.6856509477929053
aF0.6808566812154924
aF0.25752079029646474
aF0.0
aF-0.6492388551647644
aF-0.7319725815135054
aF0.20665199940189394
aF0.0
aF-0.32919855214602084
aF0.025501363819994703
aF-0.9439163065167819
aF0.0
aF5.498659000409425
aF5.081778407181062
aF3.9215073862095498
aF1.0
asg16
g154
sbag0
(g8
g2
Ntp223
Rp224
(dp225
g12
I17
sg13
I18
sg14
(lp226
F-0.6856509477929053
aF0.6808566812154924
aF0.25752079029646474
aF0.0
aF-0.6492388551647644
aF-0.7319725815135054
aF0.20665199940189394
aF0.0
aF-0.32919855214602084
aF0.025501363819994703
aF-0.9439163065167819
aF0.0
aF5.131645003252302
aF1.5220646152737487
aF-5.468714495727626
aF1.0
asg16
g154
sbag0
(g8
g2
Ntp227
Rp228
(dp229
g12
I19
sg13
I19
sg14
(lp230
F-0.029230031467337044
aF-0.07874017652155434
aF0.9964665523045783
aF0.0
aF-0.998722040454225
aF-0.03881858325587984
aF-0.03236361390445098
aF0.0
aF0.041229736494046765
aF-0.9961390978148388
aF-0.07750488135124578
aF0.0
aF10.562321951531729
aF-13.574333871274192
aF-1.6492097310171303
aF1.0
asg16
g154
sbag0
(g8
g2
Ntp231
Rp232
(dp233
g12
I19
sg13
I20
sg14
(lp234
F-0.029230031467337044
aF-0.07874017652155434
aF0.9964665523045783
aF0.0
aF-0.998722040454225
aF-0.03881858325587984
aF-0.03236361390445098
aF0.0
aF0.041229736494046765
aF-0.9961390978148388
aF-0.07750488135124578
aF0.0
aF9.523153342542798
aF12.369465340635282
aF-0.6994065367636857
aF1.0
asg16
g154
sbag0
(g8
g2
Ntp235
Rp236
(dp237
g12
I19
sg13
I21
sg14
(lp238
F-0.029230031467337044
aF-0.07874017652155434
aF0.9964665523045783
aF0.0
aF-0.998722040454225
aF-0.03881858325587984
aF-0.03236361390445098
aF0.0
aF0.041229736494046765
aF-0.9961390978148388
aF-0.07750488135124578
aF0.0
aF10.363618875835485
aF-1.090136199066888
aF-10.491538846748004
aF1.0
asg16
g154
sbag0
(g8
g2
Ntp239
Rp240
(dp241
g12
I21
sg13
I22
sg14
(lp242
F1.0654800952636376e-07
aF-0.21716283659954433
aF0.9761353914288877
aF0.0
aF-0.9999999999852978
aF5.269010542097163e-06
aF1.2813604505224063e-06
aF0.0
aF-5.421531538096767e-06
aF-0.9761353914146728
aF-0.2171628365957902
aF0.0
aF11.010049764053429
aF-2.175479337908322
aF5.096504112497379
aF1.0
asg16
g154
sbag0
(g8
g2
Ntp243
Rp244
(dp245
g12
I21
sg13
I23
sg14
(lp246
F1.0654800952636376e-07
aF-0.21716283659954433
aF0.9761353914288877
aF0.0
aF-0.9999999999852978
aF5.269010542097163e-06
aF1.2813604505224063e-06
aF0.0
aF-5.421531538096767e-06
aF-0.9761353914146728
aF-0.2171628365957902
aF0.0
aF11.010042498675519
aF-0.811724290680961
aF-6.181366704719094
aF1.0
asg16
g154
sbag0
(g8
g2
Ntp247
Rp248
(dp249
g12
I21
sg13
I24
sg14
(lp250
F1.0654800952636376e-07
aF-0.21716283659954433
aF0.9761353914288877
aF0.0
aF-0.9999999999852978
aF5.269010542097163e-06
aF1.2813604505224063e-06
aF0.0
aF-5.421531538096767e-06
aF-0.9761353914146728
aF-0.2171628365957902
aF0.0
aF11.010158557938494
aF20.679360883386348
aF-3.9786230421956983
aF1.0
asg16
g154
sbag0
(g8
g2
Ntp251
Rp252
(dp253
g12
I21
sg13
I25
sg14
(lp254
F1.0654800952636376e-07
aF-0.21716283659954433
aF0.9761353914288877
aF0.0
aF-0.9999999999852978
aF5.269010542097163e-06
aF1.2813604505224063e-06
aF0.0
aF-5.421531538096767e-06
aF-0.9761353914146728
aF-0.2171628365957902
aF0.0
aF11.01015980031328
aF18.147191257607666
aF7.40334464402393
aF1.0
asg16
g154
sbag0
(g8
g2
Ntp255
Rp256
(dp257
g12
I23
sg13
I26
sg14
(lp258
F-0.029229994191939595
aF-0.07873725871855915
aF-0.9964667839567084
aF0.0
aF-0.9987220450722696
aF-0.03881859569579714
aF0.032363456472841653
aF0.0
aF0.041229651056035536
aF-0.996139327964564
aF0.07750196872405656
aF0.0
aF10.56232179257944
aF-13.574364484236892
aF1.6491724186683054
aF1.0
asg16
g154
sbag0
(g8
g2
Ntp259
Rp260
(dp261
g12
I23
sg13
I27
sg14
(lp262
F-0.029229994191939595
aF-0.07873725871855915
aF-0.9964667839567084
aF0.0
aF-0.9987220450722696
aF-0.03881859569579714
aF0.032363456472841653
aF0.0
aF0.041229651056035536
aF-0.996139327964564
aF0.07750196872405656
aF0.0
aF10.363619356675116
aF-1.0901926660171721
aF10.491538051069703
aF1.0
asg16
g154
sbag0
(g8
g2
Ntp263
Rp264
(dp265
g12
I23
sg13
I28
sg14
(lp266
F-0.029229994191939595
aF-0.07873725871855915
aF-0.9964667839567084
aF0.0
aF-0.9987220450722696
aF-0.03881859569579714
aF0.032363456472841653
aF0.0
aF0.041229651056035536
aF-0.996139327964564
aF0.07750196872405656
aF0.0
aF9.52315536183363
aF12.369437592010492
aF0.6994450834245374
aF1.0
asg16
g154
sbag0
(g8
g2
Ntp267
Rp268
(dp269
g12
I25
sg13
I29
sg14
(lp270
F-4.666363914607173e-06
aF-0.21715613905082368
aF-0.9761368814109852
aF0.0
aF-0.9999999999489614
aF9.760643191247809e-06
aF2.6090401589184964e-06
aF0.0
aF-8.961154717823662e-06
aF-0.9761368813733398
aF0.21715613908528725
aF0.0
aF11.010053149380171
aF-2.1756863088360285
aF-5.097135901327329
aF1.0
asg16
g154
sbag0
(g8
g2
Ntp271
Rp272
(dp273
g12
I25
sg13
I30
sg14
(lp274
F-4.666363914607173e-06
aF-0.21715613905082368
aF-0.9761368814109852
aF0.0
aF-0.9999999999489614
aF9.760643191247809e-06
aF2.6090401589184964e-06
aF0.0
aF-8.961154717823662e-06
aF-0.9761368813733398
aF0.21715613908528725
aF0.0
aF11.010245493595246
aF18.147000113389808
aF-7.403836993955849
aF1.0
asg16
g154
sbag0
(g8
g2
Ntp275
Rp276
(dp277
g12
I25
sg13
I31
sg14
(lp278
F-4.666363914607173e-06
aF-0.21715613905082368
aF-0.9761368814109852
aF0.0
aF-0.9999999999489614
aF9.760643191247809e-06
aF2.6090401589184964e-06
aF0.0
aF-8.961154717823662e-06
aF-0.9761368813733398
aF0.21715613908528725
aF0.0
aF11.010299904493316
aF20.67909164417901
aF3.9781480658046178
aF1.0
asg16
g154
sbag0
(g8
g2
Ntp279
Rp280
(dp281
g12
I25
sg13
I32
sg14
(lp282
F-4.666363914607173e-06
aF-0.21715613905082368
aF-0.9761368814109852
aF0.0
aF-0.9999999999489614
aF9.760643191247809e-06
aF2.6090401589184964e-06
aF0.0
aF-8.961154717823662e-06
aF-0.9761368813733398
aF0.21715613908528725
aF0.0
aF11.010095884193586
aF-0.8120086422936446
aF6.180744272653108
aF1.0
asg16
g154
sbasb.