ccopy_reg
_reconstructor
p0
(c__main__
DataSkeleton
p1
c__builtin__
object
p2
Ntp3
Rp4
(dp5
S'_bones'
p6
(lp7
g0
(c__main__
DataBone
p8
g2
Ntp9
Rp10
(dp11
S'_parentId'
p12
I-1
sS'_id'
p13
I0
sS'_matrix'
p14
(lp15
F1.0
aF0.0
aF-0.0
aF0.0
aF-0.0
aF2.220446049250313e-16
aF-1.0
aF0.0
aF0.0
aF1.0
aF2.220446049250313e-16
aF0.0
aF0.0
aF0.0
aF0.0
aF1.0
asS'_name'
p16
S'Rhino_Base'
p17
sbag0
(g8
g2
Ntp18
Rp19
(dp20
g12
I0
sg13
I1
sg14
(lp21
F9.321063258548531e-07
aF8.296641685228635e-13
aF0.9999999403949209
aF0.0
aF-1.8636398503009603e-06
aF0.9999999999982634
aF9.074463793830653e-13
aF0.0
aF-0.9999999403931843
aF-1.8636397392194053e-06
aF9.321063258548531e-07
aF0.0
aF0.03583800047636032
aF0.683193027973175
aF65.45909881591797
aF1.0
asg16
VHips
p22
sbag0
(g8
g2
Ntp23
Rp24
(dp25
g12
I1
sg13
I2
sg14
(lp26
F0.9988898138151167
aF-0.047106481985701214
aF1.4305116917680095e-06
aF0.0
aF0.0471064819877453
aF0.9988898138150203
aF-1.430511691766546e-06
aF0.0
aF-1.3615373465197157e-06
aF1.4963101090646213e-06
aF0.9999999999979536
aF0.0
aF4.6508026123046875
aF-0.01909703016281128
aF-0.005093187093734741
aF1.0
asg16
VSpine
p27
sbag0
(g8
g2
Ntp28
Rp29
(dp30
g12
I2
sg13
I3
sg14
(lp31
F0.9944694998126585
aF-0.10502577751067049
aF-7.999451304493118e-07
aF0.0
aF0.10502577751184433
aF0.9944694998115644
aF1.6029402927055672e-06
aF0.0
aF6.271709832100398e-07
aF-1.6780900904087147e-06
aF0.9999999999983953
aF0.0
aF24.034385681152344
aF-0.017164945602416992
aF-2.977997064590454e-05
aF1.0
asg16
VSpine1
p32
sbag0
(g8
g2
Ntp33
Rp34
(dp35
g12
I3
sg13
I4
sg14
(lp36
F0.9978830140705318
aF0.06503453105296245
aF4.816741906475437e-07
aF0.0
aF-0.06503453105100551
aF0.9978830140652035
aF-3.334754270973574e-06
aF0.0
aF-6.975286733504184e-07
aF3.296369187995553e-06
aF0.9999999999943237
aF0.0
aF21.62389373779297
aF-0.014781951904296875
aF1.3299286365509033e-06
aF1.0
asg16
VSpine2
p37
sbag0
(g8
g2
Ntp38
Rp39
(dp40
g12
I4
sg13
I5
sg14
(lp41
F0.8353580671775609
aF0.5497061938901051
aF4.7314640685969165e-07
aF0.0
aF-0.5497061938899193
aF0.8353580671776842
aF-4.7129753619596107e-07
aF0.0
aF-6.543218427384439e-07
aF1.3361068843467235e-07
aF0.999999999999777
aF0.0
aF28.20378875732422
aF1.8419013023376465
aF8.791685104370117e-06
aF1.0
asg16
VNeck
p42
sbag0
(g8
g2
Ntp43
Rp44
(dp45
g12
I5
sg13
I6
sg14
(lp46
F0.9972082513273264
aF-0.07466983510884241
aF4.777242198642303e-07
aF0.0
aF0.07466983510885093
aF0.9972082513274402
aF0.0
aF0.0
aF-4.7639059069775685e-07
aF3.567159297715166e-08
aF0.9999999999998859
aF0.0
aF6.1999359130859375
aF-0.0031890866812318563
aF0.0001280568540096283
aF1.0
asg16
VNeck1
p47
sbag0
(g8
g2
Ntp48
Rp49
(dp50
g12
I6
sg13
I7
sg14
(lp51
F0.951622723375688
aF-0.30726892513729914
aF-8.751999476542844e-08
aF0.0
aF0.3072689250914134
aF0.951622723228578
aF1.755541518911458e-05
aF0.0
aF-5.310947539742623e-06
aF-1.673302418697171e-05
aF0.9999999998458998
aF0.0
aF3.576843500137329
aF4.892387390136719
aF-0.00010646507143974304
aF1.0
asg16
VHead
p52
sbag0
(g8
g2
Ntp53
Rp54
(dp55
g12
I4
sg13
I8
sg14
(lp56
F-0.15603805366904494
aF-0.02750549224166149
aF0.9873681239144364
aF0.0
aF-0.0007873849766692592
aF-0.9996087849642822
aF-0.02797091888007187
aF0.0
aF0.9877508513035885
aF-0.005141964729683605
aF0.15595529605097824
aF0.0
aF21.146705627441406
aF0.23819208145141602
aF4.217499256134033
aF1.0
asg16
VLeftClavicle
p57
sbag0
(g8
g2
Ntp58
Rp59
(dp60
g12
I8
sg13
I9
sg14
(lp61
F0.8950955849433847
aF0.02431039497546915
aF-0.4452110718647916
aF0.0
aF9.897710076409684e-05
aF0.998501657945215
aF0.05472137867589286
aF0.0
aF0.44587429172177384
aF-0.04902493015592803
aF0.8937520194129985
aF0.0
aF21.745285034179688
aF-4.57763671875e-05
aF0.000335693359375
aF1.0
asg16
VLeftArm
p62
sbag0
(g8
g2
Ntp63
Rp64
(dp65
g12
I9
sg13
I10
sg14
(lp66
F0.8958419500375354
aF-0.4443728170715647
aF9.097698320730473e-07
aF0.0
aF0.4443728170705194
aF0.8958419500377796
aF1.1485744459098172e-06
aF0.0
aF-1.3254052425952187e-06
aF-6.24664188223059e-07
aF0.9999999999989265
aF0.0
aF37.998043060302734
aF-6.556510925292969e-05
aF0.00054168701171875
aF1.0
asg16
VLeftForeArm
p67
sbag0
(g8
g2
Ntp68
Rp69
(dp70
g12
I10
sg13
I11
sg14
(lp71
F0.985963086638022
aF0.11278138851144921
aF-0.12311437849680174
aF0.0
aF-0.12336365281228583
aF-0.0047927500309745425
aF-0.9923498977188766
aF0.0
aF-0.11250864908924457
aF0.9936081484012409
aF0.00918764889436307
aF0.0
aF25.756607055664062
aF0.0002880096435546875
aF-0.000701904296875
aF1.0
asg16
VLeftHand
p72
sbag0
(g8
g2
Ntp73
Rp74
(dp75
g12
I11
sg13
I12
sg14
(lp76
F0.9805694454486868
aF-0.1944928626998187
aF0.025611907426002386
aF0.0
aF0.18824754012829117
aF0.9696378425439548
aF0.15609355762832125
aF0.0
aF-0.0551933641116773
aF-0.14823921234226783
aF0.9874101622335978
aF0.0
aF2.0851593017578125
aF-0.13857269287109375
aF-3.123697280883789
aF1.0
asg16
VLeftHandIndex
p77
sbag0
(g8
g2
Ntp78
Rp79
(dp80
g12
I12
sg13
I13
sg14
(lp81
F0.998408371847352
aF0.05174185472424427
aF-0.022438883546531996
aF0.0
aF-0.051475450654357637
aF0.9985986079613832
aF0.012292199051372164
aF0.0
aF0.023043459051332028
aF-0.01111758279856566
aF0.9996726455933795
aF0.0
aF9.939701080322266
aF-0.00012969970703125
aF-9.34600830078125e-05
aF1.0
asg16
VLeftHandIndex1
p82
sbag0
(g8
g2
Ntp83
Rp84
(dp85
g12
I13
sg13
I14
sg14
(lp86
F0.9743764688904771
aF0.22492304831278628
aF9.607725341968e-07
aF0.0
aF-0.22492304831243523
aF0.974376468890923
aF-4.604006104097865e-07
aF0.0
aF-1.0397089819594635e-06
aF2.325036616362959e-07
aF0.9999999999994325
aF0.0
aF4.523937225341797
aF0.00060272216796875
aF0.00018215179443359375
aF1.0
asg16
VLeftHandIndex2
p87
sbag0
(g8
g2
Ntp88
Rp89
(dp90
g12
I14
sg13
I15
sg14
(lp91
F0.9891325605524073
aF0.1470264520363846
aF-7.525359810577519e-06
aF0.0
aF-0.14702645202987563
aF0.9891325605809907
aF1.4139881680835782e-06
aF0.0
aF7.651472082304577e-06
aF-2.9219478408988816e-07
aF0.9999999999706848
aF0.0
aF2.685565948486328
aF-0.000396728515625
aF-3.62396240234375e-05
aF1.0
asg16
VLeftHandIndex3
p92
sbag0
(g8
g2
Ntp93
Rp94
(dp95
g12
I11
sg13
I16
sg14
(lp96
F0.9982057378010817
aF-0.05262227059616548
aF-0.028567156824157895
aF0.0
aF0.05173598340789407
aF0.9981818620476002
aF-0.030925043249828213
aF0.0
aF0.03014256558287123
aF0.029391607414136114
aF0.9991133865351297
aF0.0
aF1.3392524719238281
aF-0.44248196482658386
aF-0.3136444091796875
aF1.0
asg16
VLeftHandMiddle
p97
sbag0
(g8
g2
Ntp98
Rp99
(dp100
g12
I16
sg13
I17
sg14
(lp101
F0.9892723582315138
aF0.14608285731111662
aF6.235329186765709e-06
aF0.0
aF-0.1460828573135806
aF0.9892723582507986
aF-6.088333762150992e-08
aF0.0
aF-6.1773328209841356e-06
aF-8.506445009076631e-07
aF0.9999999999805584
aF0.0
aF5.659820556640625
aF-0.00025177001953125
aF-6.103515625e-05
aF1.0
asg16
VLeftHandMiddle1
p102
sbag0
(g8
g2
Ntp103
Rp104
(dp105
g12
I17
sg13
I18
sg14
(lp106
F0.9847258647597555
aF0.1741119504029294
aF-1.9855412771925287e-07
aF0.0
aF-0.17411195040299463
aF0.9847258647596906
aF-3.8050146846106076e-07
aF0.0
aF1.2927153231501332e-07
aF4.092602840104394e-07
aF0.9999999999999079
aF0.0
aF3.7281763553619385
aF0.00028228759765625
aF5.054473513155244e-05
aF1.0
asg16
VLeftHandMiddle2
p107
sbag0
(g8
g2
Ntp108
Rp109
(dp110
g12
I18
sg13
I19
sg14
(lp111
F0.9742637560824021
aF0.22541076804187002
aF-5.069330347855518e-06
aF0.0
aF-0.22541076804399254
aF0.974263756095087
aF1.5611706502404723e-07
aF0.0
aF4.974055886073694e-06
aF9.905825671065837e-07
aF0.9999999999871387
aF0.0
aF2.1137313842773438
aF-0.0003662109375
aF-0.00014781951904296875
aF1.0
asg16
VLeftHandMiddle3
p112
sbag0
(g8
g2
Ntp113
Rp114
(dp115
g12
I11
sg13
I20
sg14
(lp116
F0.9955713352453023
aF-0.04384785625578686
aF0.08315625490828547
aF0.0
aF0.05446647767066803
aF0.9900086030659174
aF-0.1300624828931671
aF0.0
aF-0.07662245583788296
aF0.13401572403632697
aF0.9880125429226042
aF0.0
aF1.3293914794921875
aF-0.10449981689453125
aF1.974954605102539
aF1.0
asg16
VLeftHandRing
p117
sbag0
(g8
g2
Ntp118
Rp119
(dp120
g12
I20
sg13
I21
sg14
(lp121
F0.9773074361469076
aF0.21182581345091414
aF-2.795833283071634e-06
aF0.0
aF-0.21182581345016935
aF0.9773074361509058
aF5.632760976288072e-07
aF0.0
aF2.851705075361787e-06
aF4.173574064126186e-08
aF0.999999999995933
aF0.0
aF5.339855194091797
aF-6.103515625e-05
aF5.340576171875e-05
aF1.0
asg16
VLeftHandRing1
p122
sbag0
(g8
g2
Ntp123
Rp124
(dp125
g12
I21
sg13
I22
sg14
(lp126
F0.9847269159854719
aF0.17410566244935669
aF5.24651867027815e-06
aF0.0
aF-0.17410566245175288
aF0.9847269159990247
aF0.0
aF0.0
aF-5.166388765795823e-06
aF-9.134487175458363e-07
aF0.999999999986237
aF0.0
aF3.6168673038482666
aF-3.0517578125e-05
aF1.33514404296875e-05
aF1.0
asg16
VLeftHandRing2
p127
sbag0
(g8
g2
Ntp128
Rp129
(dp130
g12
I22
sg13
I23
sg14
(lp131
F0.9780495359751886
aF0.20837222936010813
aF9.64690220960198e-07
aF0.0
aF-0.20837222936053268
aF0.978049535975507
aF3.6167272610379115e-07
aF0.0
aF-8.681523742250611e-07
aF-5.547485600556555e-07
aF0.9999999999994693
aF0.0
aF1.9781494140625
aF-0.0001678466796875
aF-9.5367431640625e-05
aF1.0
asg16
VLeftHandRing3
p132
sbag0
(g8
g2
Ntp133
Rp134
(dp135
g12
I11
sg13
I24
sg14
(lp136
F0.9726858790683242
aF-0.12607418348882113
aF0.19490377348504184
aF0.0
aF0.137645522124879
aF0.9893678502012562
aF-0.046957078562386706
aF0.0
aF-0.18691145203023515
aF0.07250211890539321
aF0.9796976839077335
aF0.0
aF2.6103363037109375
aF-0.42841342091560364
aF2.6283397674560547
aF1.0
asg16
VLeftHandPinky
p137
sbag0
(g8
g2
Ntp138
Rp139
(dp140
g12
I24
sg13
I25
sg14
(lp141
F0.9754356975152978
aF0.2150594809811139
aF0.047691723010312666
aF0.0
aF-0.21487963619283276
aF0.9765997353019826
aF-0.008927427274042379
aF0.0
aF-0.048495654834585296
aF-0.001539848931574865
aF0.9988222065650286
aF0.0
aF8.184844970703125
aF-0.000152587890625
aF-7.43865966796875e-05
aF1.0
asg16
VLeftHandPinky1
p142
sbag0
(g8
g2
Ntp143
Rp144
(dp145
g12
I25
sg13
I26
sg14
(lp146
F0.9789985179274767
aF0.2038673634881335
aF4.485698910856724e-07
aF0.0
aF-0.20386736348814022
aF0.9789985179275776
aF-3.1150323329648797e-08
aF0.0
aF-4.4549979284882654e-07
aF-6.095264066311035e-08
aF0.9999999999998989
aF0.0
aF4.227703094482422
aF0.0001373291015625
aF7.534027099609375e-05
aF1.0
asg16
VLeftHandPinky2
p147
sbag0
(g8
g2
Ntp148
Rp149
(dp150
g12
I26
sg13
I27
sg14
(lp151
F0.9961542805983982
aF0.08761648957523849
aF0.0
aF0.0
aF-0.0876164895752384
aF0.9961542805983973
aF4.267732530094916e-08
aF0.0
aF3.739237427329673e-09
aF-4.251320028303082e-08
aF0.9999999999999991
aF0.0
aF3.377063512802124
aF-0.00019073486328125
aF-0.00014591217041015625
aF1.0
asg16
VLeftHandPinky3
p152
sbag0
(g8
g2
Ntp153
Rp154
(dp155
g12
I11
sg13
I28
sg14
(lp156
F0.6690732624415423
aF0.49000558043561326
aF-0.5587802621948121
aF0.0
aF0.46855149006692637
aF0.30549884365958047
aF0.8289330236386547
aF0.0
aF0.5768885313506192
aF-0.8164342469428137
aF-0.02519173685478143
aF0.0
aF3.669414758682251
aF2.2534713745117188
aF-5.0033159255981445
aF1.0
asg16
VLeftHandThumb1
p157
sbag0
(g8
g2
Ntp158
Rp159
(dp160
g12
I28
sg13
I29
sg14
(lp161
F0.944068173972531
aF0.32820837168111777
aF-0.03185196462701134
aF0.0
aF-0.3281212524413349
aF0.944601111648897
aF0.008073634125828006
aF0.0
aF0.03273723550486338
aF0.002829245499639303
aF0.9994599885845366
aF0.0
aF4.73199462890625
aF0.000324249267578125
aF-0.00018310546875
aF1.0
asg16
VLeftHandThumb2
p162
sbag0
(g8
g2
Ntp163
Rp164
(dp165
g12
I29
sg13
I30
sg14
(lp166
F0.971408049851825
aF0.23741609187464355
aF1.4300636313819642e-06
aF0.0
aF-0.23741609187004112
aF0.9714080498499322
aF-2.8120764993463913e-06
aF0.0
aF-2.056807535849415e-06
aF2.39215362977604e-06
aF0.9999999999950235
aF0.0
aF4.530635833740234
aF-9.5367431640625e-05
aF0.00011444092524470761
aF1.0
asg16
VLeftHandThumb3
p167
sbag0
(g8
g2
Ntp168
Rp169
(dp170
g12
I11
sg13
I31
sg14
(lp171
F0.0006269631403086857
aF0.9973337366496706
aF-0.07297440014292574
aF0.0
aF0.9947599175994295
aF0.006838638335695424
aF0.10200950623981211
aF0.0
aF0.1022365675622815
aF-0.07265596447341804
aF-0.9921033381145908
aF0.0
aF7.33402681350708
aF2.7366104125976562
aF-0.4966563880443573
aF1.0
asg16
VLeftHandProp
p172
sbag0
(g8
g2
Ntp173
Rp174
(dp175
g12
I4
sg13
I32
sg14
(lp176
F-0.156035811936438
aF-0.02750522562013047
aF-0.9873683648755018
aF0.0
aF-0.0007879636383199879
aF-0.9996083726689441
aF0.02797072030112563
aF0.0
aF-0.9877510254106369
aF0.005142444421782503
aF0.15595303093020774
aF0.0
aF21.146690368652344
aF0.2382822036743164
aF-4.217480659484863
aF1.0
asg16
VRightClavicle
p177
sbag0
(g8
g2
Ntp178
Rp179
(dp180
g12
I32
sg13
I33
sg14
(lp181
F0.8950950812158079
aF0.024310053282601496
aF0.44521196938467117
aF0.0
aF9.93305323550778e-05
aF0.9985016074747938
aF-0.05472120973088975
aF0.0
aF-0.445875195774323
aF0.04902491465445292
aF0.8937515692497175
aF0.0
aF21.745319366455078
aF-7.534027099609375e-05
aF-0.000274658203125
aF1.0
asg16
VRightArm
p182
sbag0
(g8
g2
Ntp183
Rp184
(dp185
g12
I33
sg13
I34
sg14
(lp186
F0.8958445092042543
aF-0.4443676578336736
aF-6.284309385758157e-08
aF0.0
aF0.444367657833599
aF0.8958445092041704
aF-4.69621974338644e-07
aF0.0
aF2.649824573778056e-07
aF3.927828286844249e-07
aF0.9999999999998878
aF0.0
aF37.99796676635742
aF-9.560585749568418e-05
aF-0.00038909912109375
aF1.0
asg16
VRightForeArm
p187
sbag0
(g8
g2
Ntp188
Rp189
(dp190
g12
I34
sg13
I35
sg14
(lp191
F0.9896389883147779
aF0.11291450061595815
aF0.08868476959406106
aF0.0
aF-0.08915511772468836
aF-0.000887256325947645
aF0.996017298318871
aF0.0
aF0.11254348196736867
aF-0.9936042525258512
aF0.009188842142453373
aF0.0
aF25.756681442260742
aF0.00011444092524470761
aF0.00067138671875
aF1.0
asg16
VRightHand
p192
sbag0
(g8
g2
Ntp193
Rp194
(dp195
g12
I35
sg13
I36
sg14
(lp196
F0.6690648382536306
aF0.49001200358516994
aF0.5587848231252263
aF0.0
aF0.4685491708278826
aF0.30551041032714654
aF-0.828930071657581
aF0.0
aF-0.5769002314565642
aF0.8164260812008903
aF-0.025188443203859903
aF0.0
aF3.6695632934570312
aF2.253448486328125
aF5.003269195556641
aF1.0
asg16
VRightHandThumb1
p197
sbag0
(g8
g2
Ntp198
Rp199
(dp200
g12
I36
sg13
I37
sg14
(lp201
F0.9440658413368322
aF0.32821488773901436
aF0.031852087500812774
aF0.0
aF-0.32812781381727596
aF0.9445988380971538
aF-0.008072971262310276
aF0.0
aF-0.032737114200816084
aF-0.0028301394303172594
aF0.9994599303900691
aF0.0
aF4.731819152832031
aF0.000335693359375
aF0.00026702880859375
aF1.0
asg16
VRightHandThumb2
p202
sbag0
(g8
g2
Ntp203
Rp204
(dp205
g12
I37
sg13
I38
sg14
(lp206
F0.9714081170277767
aF0.2374158170033226
aF-3.0321786198660687e-06
aF0.0
aF-0.23741581698641162
aF0.9714081170233896
aF5.074193328728345e-06
aF0.0
aF4.150176678375526e-06
aF-4.209225422610675e-06
aF0.9999999999825292
aF0.0
aF4.530632019042969
aF-0.0002613067626953125
aF-5.340576171875e-05
aF1.0
asg16
VRightHandThumb3
p207
sbag0
(g8
g2
Ntp208
Rp209
(dp210
g12
I35
sg13
I39
sg14
(lp211
F0.9805688518927247
aF-0.1944946109484179
aF-0.025621354384990077
aF0.0
aF0.18824801648678327
aF0.969638182111149
aF-0.15609087376170322
aF0.0
aF0.05520228383459322
aF0.14823469740371867
aF0.9874103414209682
aF0.0
aF2.0851058959960938
aF-0.13867950439453125
aF3.1236982345581055
aF1.0
asg16
VRightHandIndex
p212
sbag0
(g8
g2
Ntp213
Rp214
(dp215
g12
I39
sg13
I40
sg14
(lp216
F0.9984080960292296
aF0.05174287769527552
aF0.022446139574866505
aF0.0
aF-0.05147642663262984
aF0.9985985739073042
aF-0.012290878383328555
aF0.0
aF-0.023050648386142077
aF0.011115865428214492
aF0.9996724393197375
aF0.0
aF9.939773559570312
aF-0.00014495849609375
aF9.584426879882812e-05
aF1.0
asg16
VRightHandIndex1
p217
sbag0
(g8
g2
Ntp218
Rp219
(dp220
g12
I40
sg13
I41
sg14
(lp221
F0.9743778634840004
aF0.22491727179643828
aF4.359811762389934e-08
aF0.0
aF-0.22491727179639243
aF0.9743778634838944
aF-4.785576798799798e-07
aF0.0
aF-1.5011692845813288e-07
aF4.564900400038893e-07
aF0.9999999999998845
aF0.0
aF4.523834228515625
aF0.00048828125
aF-0.000263214111328125
aF1.0
asg16
VRightHandIndex2
p222
sbag0
(g8
g2
Ntp223
Rp224
(dp225
g12
I41
sg13
I42
sg14
(lp226
F0.9891328615863227
aF0.14702442698411222
aF-2.1423813022726035e-07
aF0.0
aF-0.14702442698425033
aF0.9891328615844315
aF-1.9356448178510966e-06
aF0.0
aF-7.267709537713563e-08
aF1.9461081360306314e-06
aF0.9999999999981037
aF0.0
aF2.685527801513672
aF-0.00030517578125
aF0.00024700164794921875
aF1.0
asg16
VRightHandIndex3
p227
sbag0
(g8
g2
Ntp228
Rp229
(dp230
g12
I35
sg13
I43
sg14
(lp231
F0.9982055079146901
aF-0.052622691664894264
aF0.028574413054882147
aF0.0
aF0.051736226898234206
aF0.9981818862705255
aF0.030923854024847864
aF0.0
aF-0.03014975795763516
aF-0.029390029096261747
aF0.9991131562918841
aF0.0
aF1.3392753601074219
aF-0.4425048828125
aF0.31363868713378906
aF1.0
asg16
VRightHandMiddle
p232
sbag0
(g8
g2
Ntp233
Rp234
(dp235
g12
I43
sg13
I44
sg14
(lp236
F0.9892728415061169
aF0.14607917664382333
aF4.359152744965404e-07
aF0.0
aF-0.14607917664404516
aF0.9892728415060383
aF5.297965445120439e-07
aF0.0
aF-3.5384694142785633e-07
aF-5.877915474647797e-07
aF0.9999999999997646
aF0.0
aF5.659816741943359
aF-0.0003814697265625
aF3.4332275390625e-05
aF1.0
asg16
VRightHandMiddle1
p237
sbag0
(g8
g2
Ntp238
Rp239
(dp240
g12
I44
sg13
I45
sg14
(lp241
F0.9847266319989532
aF0.17410726872444326
aF-1.6365339436825463e-07
aF0.0
aF-0.1741072687245041
aF0.9847266319988309
aF-4.961816860043662e-07
aF0.0
aF7.476502662280379e-08
aF5.170966276723124e-07
aF0.9999999999998636
aF0.0
aF3.7281036376953125
aF0.00038909912109375
aF-0.00013828277587890625
aF1.0
asg16
VRightHandMiddle2
p242
sbag0
(g8
g2
Ntp243
Rp244
(dp245
g12
I45
sg13
I46
sg14
(lp246
F0.9742648534336302
aF0.2254062895394605
aF0.0
aF0.0
aF-0.22540628953943403
aF0.9742648534335157
aF-4.848160358037194e-07
aF0.0
aF-1.0928058373974662e-07
aF4.7233922406458435e-07
aF0.9999999999998824
aF0.0
aF2.113658905029297
aF-0.00040435788105241954
aF4.863739013671875e-05
aF1.0
asg16
VRightHandMiddle3
p247
sbag0
(g8
g2
Ntp248
Rp249
(dp250
g12
I35
sg13
I47
sg14
(lp251
F0.9955714205886372
aF-0.04384827509427127
aF-0.08315572907731582
aF0.0
aF0.0544667668587836
aF0.9900086771369091
aF0.1300617979742404
aF0.0
aF0.07662191241038048
aF-0.13401504067007206
aF0.9880126777591343
aF0.0
aF1.3287086486816406
aF-0.1052703857421875
aF-1.9747523069381714
aF1.0
asg16
VRightHandRing
p252
sbag0
(g8
g2
Ntp253
Rp254
(dp255
g12
I47
sg13
I48
sg14
(lp256
F0.9773082311316597
aF0.21182186419966118
aF2.7938818844766308e-08
aF0.0
aF-0.21182186419966234
aF0.9773082311316585
aF4.975960543580221e-08
aF0.0
aF-1.6764667238339207e-08
aF-5.454853116419968e-08
aF0.9999999999999983
aF0.0
aF5.339820861816406
aF-0.0001373291015625
aF-7.43865966796875e-05
aF1.0
asg16
VRightHandRing1
p257
sbag0
(g8
g2
Ntp258
Rp259
(dp260
g12
I48
sg13
I49
sg14
(lp261
F0.9847265189778057
aF0.1741079079552862
aF-2.784155091007489e-08
aF0.0
aF-0.17410790795528552
aF0.9847265189778059
aF2.4966127737110935e-08
aF0.0
aF3.176311756713281e-08
aF-1.97373762286153e-08
aF0.9999999999999993
aF0.0
aF3.616931915283203
aF4.57763671875e-05
aF-6.103515625e-05
aF1.0
asg16
VRightHandRing2
p262
sbag0
(g8
g2
Ntp263
Rp264
(dp265
g12
I49
sg13
I50
sg14
(lp266
F0.9780507422655784
aF0.2083668532962529
aF-1.081162114106604e-06
aF0.0
aF-0.20836685329684498
aF0.9780507422659388
aF-4.6617157664720543e-07
aF0.0
aF9.602967036896444e-07
aF6.812178041830718e-07
aF0.9999999999993069
aF0.0
aF1.979034423828125
aF0.00017547607421875
aF-0.00017547607421875
aF1.0
asg16
VRightHandRing3
p267
sbag0
(g8
g2
Ntp268
Rp269
(dp270
g12
I35
sg13
I51
sg14
(lp271
F0.9726837709018658
aF-0.1260785607794566
aF-0.19491146281301044
aF0.0
aF0.13765094458306573
aF0.9893669984511521
aF0.046959129369568524
aF0.0
aF0.18691841833945338
aF-0.07250612567803633
aF0.9796959974478573
aF0.0
aF2.610332489013672
aF-0.42847442626953125
aF-2.628335952758789
aF1.0
asg16
VRightHandPinky
p272
sbag0
(g8
g2
Ntp273
Rp274
(dp275
g12
I51
sg13
I52
sg14
(lp276
F0.9754341019385956
aF0.2150666883429528
aF-0.047693105795708395
aF0.0
aF-0.2148864904921232
aF0.9765981024204505
aF0.008934391051877037
aF0.0
aF0.048498489405249944
aF0.0015336945044687328
aF0.9988220784036443
aF0.0
aF8.184799194335938
aF-0.0001220703125
aF0.00013637542724609375
aF1.0
asg16
VRightHandPinky1
p277
sbag0
(g8
g2
Ntp278
Rp279
(dp280
g12
I52
sg13
I53
sg14
(lp281
F0.9789985036878851
aF0.2038671394992206
aF-3.729967844230988e-08
aF0.0
aF-0.20386713949921534
aF0.9789985036878803
aF1.1302231220770059e-07
aF0.0
aF5.955787197228362e-08
aF-1.0304450807027182e-07
aF0.9999999999999929
aF0.0
aF4.227714538574219
aF0.0001373291015625
aF-4.673004150390625e-05
aF1.0
asg16
VRightHandPinky2
p282
sbag0
(g8
g2
Ntp283
Rp284
(dp285
g12
I53
sg13
I54
sg14
(lp286
F0.9961539616313986
aF0.08761943572507136
aF-6.365694539224435e-08
aF0.0
aF-0.08761943572507153
aF0.9961539616314007
aF0.0
aF0.0
aF6.341212589715221e-08
aF5.577586300150223e-09
aF0.999999999999998
aF0.0
aF3.3770713806152344
aF-0.000152587890625
aF0.00015544891357421875
aF1.0
asg16
VRightHandPinky3
p287
sbag0
(g8
g2
Ntp288
Rp289
(dp290
g12
I35
sg13
I55
sg14
(lp291
F-0.0006010698286655902
aF-0.9973391908249708
aF-0.07289840299796228
aF0.0
aF0.9947676323427742
aF0.006851087487735774
aF-0.10193341082974801
aF0.0
aF0.10216161881162546
aF-0.07257824084963509
aF0.9921166275176324
aF0.0
aF7.321498394012451
aF2.75201416015625
aF0.5070362091064453
aF1.0
asg16
VRightHandProp
p292
sbag0
(g8
g2
Ntp293
Rp294
(dp295
g12
I4
sg13
I56
sg14
(lp296
F0.08234480369535196
aF-0.9932130152687605
aF-0.082140857043405
aF0.0
aF0.10710599839749362
aF-0.07312384096889679
aF0.9915549450177896
aF0.0
aF-0.9908317907714365
aF-0.09044718119457716
aF0.1003577092734973
aF0.0
aF23.718238830566406
aF-32.49315643310547
aF-11.770428657531738
aF1.0
asg16
VSpine2Prop
p297
sbag0
(g8
g2
Ntp298
Rp299
(dp300
g12
I4
sg13
I57
sg14
(lp301
F0.0909051699747252
aF-0.9958595533855548
aF-1.6093253206728168e-06
aF0.0
aF-0.0037507585376599937
aF-0.0003439969573428847
aF0.9999929067130854
aF0.0
aF-0.9958524900216189
aF-0.09090451912208199
aF-0.0037664998240491965
aF0.0
aF11.023162841796875
aF-38.392337799072266
aF0.002365346997976303
aF1.0
asg16
VSpine2Jetpack
p302
sbag0
(g8
g2
Ntp303
Rp304
(dp305
g12
I2
sg13
I58
sg14
(lp306
F0.0736282290294259
aF-0.013599343498656605
aF-0.9971930313366595
aF0.0
aF-0.9867503280176418
aF-0.14595181456013695
aF-0.07086675103511693
aF0.0
aF-0.14457839110034854
aF0.9891983441441402
aF-0.024165330287818056
aF0.0
aF0.6917266845703125
aF0.47499775886535645
aF20.61896324157715
aF1.0
asg16
VSpineProp
p307
sbag0
(g8
g2
Ntp308
Rp309
(dp310
g12
I1
sg13
I59
sg14
(lp311
F-0.994944397462822
aF-0.07886452983957111
aF0.06217742267516056
aF0.0
aF-0.0737912414652185
aF0.9940554039819124
aF0.08005365255934778
aF0.0
aF-0.06812120074728416
aF0.07506078837402226
aF-0.9948494258215255
aF0.0
aF-1.52587890625e-05
aF1.239776611328125e-05
aF18.48323631286621
aF1.0
asg16
VLeftUpLeg
p312
sbag0
(g8
g2
Ntp313
Rp314
(dp315
g12
I59
sg13
I60
sg14
(lp316
F0.9999991080351824
aF-0.0013356213128127383
aF6.674455033666249e-06
aF0.0
aF0.0013356213001450802
aF0.9999991080556646
aF1.9020284334245103e-06
aF0.0
aF-6.676989470137148e-06
aF-1.8931121925722405e-06
aF0.9999999999759169
aF0.0
aF34.099082946777344
aF7.748603820800781e-05
aF0.000316619873046875
aF1.0
asg16
VLeftLeg
p317
sbag0
(g8
g2
Ntp318
Rp319
(dp320
g12
I60
sg13
I61
sg14
(lp321
F0.9948448819749356
aF0.07512503408476096
aF0.06811586344423795
aF0.0
aF-0.07164932387679124
aF0.9960676271275031
aF-0.05211196193374524
aF0.0
aF-0.07176291938713951
aF0.04696286305839562
aF0.9963154388471089
aF0.0
aF23.25558853149414
aF2.384185791015625e-07
aF-5.722046262235381e-05
aF1.0
asg16
VLeftFoot
p322
sbag0
(g8
g2
Ntp323
Rp324
(dp325
g12
I61
sg13
I62
sg14
(lp326
F0.002606299650062316
aF0.9999966035733647
aF6.6233524605956445e-06
aF0.0
aF-0.99999660359431
aF0.0026062996406860384
aF1.4238723893336731e-06
aF0.0
aF1.4066051121173773e-06
aF-6.627041003113713e-06
aF0.9999999999770519
aF0.0
aF7.9364752769470215
aF10.739215850830078
aF2.288818359375e-05
aF1.0
asg16
VLeftFootToes
p327
sbag0
(g8
g2
Ntp328
Rp329
(dp330
g12
I1
sg13
I63
sg14
(lp331
F-0.9949443306629122
aF-0.07886399127567592
aF-0.06217725744381699
aF0.0
aF-0.07379074715818125
aF0.9940555215253287
aF-0.08005339317508157
aF0.0
aF0.06812098023660307
aF-0.07506056788080939
aF-0.9948493976435472
aF0.0
aF1.52587890625e-05
aF2.5033950805664062e-06
aF-18.48316192626953
aF1.0
asg16
VRightUpLeg
p332
sbag0
(g8
g2
Ntp333
Rp334
(dp335
g12
I63
sg13
I64
sg14
(lp336
F0.9999991055043861
aF-0.0013375314270177175
aF-3.3091248224582944e-07
aF0.0
aF0.0013375314267012944
aF0.9999991055039856
aF-9.54594175377271e-07
aF0.0
aF3.321889859555482e-07
aF9.541507156524766e-07
aF0.9999999999994896
aF0.0
aF34.099021911621094
aF-1.5974044799804688e-05
aF4.1961669921875e-05
aF1.0
asg16
VRightLeg
p337
sbag0
(g8
g2
Ntp338
Rp339
(dp340
g12
I64
sg13
I65
sg14
(lp341
F0.9948444677242373
aF0.07513078985156021
aF-0.06811644041462932
aF0.0
aF-0.07165531156125815
aF0.9960673826044285
aF0.05210840274487374
aF0.0
aF0.0717635099722559
aF-0.04695885143232995
aF0.9963156452192339
aF0.0
aF23.255647659301758
aF1.1920928955078125e-05
aF0.000141143798828125
aF1.0
asg16
VRightFoot
p342
sbag0
(g8
g2
Ntp343
Rp344
(dp345
g12
I65
sg13
I66
sg14
(lp346
F0.002610028062950076
aF0.9999965938655733
aF-3.2806036979252164e-06
aF0.0
aF-0.9999965938673836
aF0.0026100280716938595
aF2.6638483567844087e-06
aF0.0
aF2.6724017511025004e-06
aF3.273639804787308e-06
aF0.9999999999910708
aF0.0
aF7.936550617218018
aF10.739252090454102
aF-0.0004940032958984375
aF1.0
asg16
VRightFootToes
p347
sbag0
(g8
g2
Ntp348
Rp349
(dp350
g12
I1
sg13
I67
sg14
(lp351
F0.17511853611282027
aF0.4979889398568386
aF0.8493176054225408
aF0.0
aF-0.7640241704648458
aF0.6128199939919186
aF-0.20178880521289796
aF0.0
aF-0.6209674400477649
aF-0.6135622553424686
aF0.48779175599797564
aF0.0
aF-1.5440292358398438
aF9.195012092590332
aF31.259870529174805
aF1.0
asg16
VLeftSwordProp
p352
sbag0
(g8
g2
Ntp353
Rp354
(dp355
g12
I1
sg13
I68
sg14
(lp356
F0.16967075034103318
aF0.4485881549171207
aF0.877485329647604
aF0.0
aF-0.8963275738586527
aF-0.29986813232537274
aF0.32661271308243356
aF0.0
aF0.4096444812784649
aF-0.841930920719214
aF0.35120308154358204
aF0.0
aF14.696586608886719
aF7.970084190368652
aF32.058921813964844
aF1.0
asg16
VLeftWeaponProp
p357
sbag0
(g8
g2
Ntp358
Rp359
(dp360
g12
I1
sg13
I69
sg14
(lp361
F-0.17517340356659947
aF-0.49803710311324606
aF0.8492779781596212
aF0.0
aF-0.7640244904157034
aF0.6128211104096988
aF0.20178420325002766
aF0.0
aF-0.6209515306745389
aF-0.6135219853841639
aF-0.48786253268101526
aF0.0
aF-1.5434417724609375
aF9.19538688659668
aF-31.18773078918457
aF1.0
asg16
VRightSwordProp
p362
sbag0
(g8
g2
Ntp363
Rp364
(dp365
g12
I1
sg13
I70
sg14
(lp366
F-0.16967007781885557
aF-0.4485838495966751
aF0.877487660639152
aF0.0
aF-0.8963283115111008
aF-0.2998688608958111
aF-0.32661020230346155
aF0.0
aF0.409643287112828
aF-0.8419330116737771
aF-0.3511996315164936
aF0.0
aF14.69692325592041
aF7.969746112823486
aF-31.987159729003906
aF1.0
asg16
VRightWeaponProp
p367
sbasS'_anchors'
p368
(lp369
sb.