ccopy_reg
_reconstructor
p0
(c__main__
DataSkeleton
p1
c__builtin__
object
p2
Ntp3
Rp4
(dp5
S'_bones'
p6
(lp7
g0
(c__main__
DataBone
p8
g2
Ntp9
Rp10
(dp11
S'_parentId'
p12
I-1
sS'_id'
p13
I0
sS'_matrix'
p14
(lp15
F1.0
aF0.0
aF-0.0
aF0.0
aF-0.0
aF2.220446049250313e-16
aF-1.0
aF0.0
aF0.0
aF1.0
aF2.220446049250313e-16
aF0.0
aF0.0
aF0.0
aF0.0
aF1.0
asS'_name'
p16
S'Human_Base'
p17
sbag0
(g8
g2
Ntp18
Rp19
(dp20
g12
I0
sg13
I1
sg14
(lp21
F1.1102230246251565e-16
aF2.6631610908693876e-07
aF0.9999999999999647
aF0.0
aF-1.8642127629789463e-06
aF0.9999999999982269
aF-2.6631610908647564e-07
aF0.0
aF-0.9999999999982625
aF-1.8642127629788802e-06
aF4.966027589148325e-13
aF0.0
aF0.0
aF0.0
aF98.01000213623047
aF1.0
asg16
VHips
p22
sbag0
(g8
g2
Ntp23
Rp24
(dp25
g12
I1
sg13
I2
sg14
(lp26
F0.9988898514002654
aF-0.047106950329316916
aF4.76466545156778e-07
aF0.0
aF0.04710695032995507
aF0.998889851399324
aF-1.4309241116687027e-06
aF0.0
aF-4.085311254350038e-07
aF1.4517804591463927e-06
aF0.9999999999988627
aF0.0
aF7.2397990226745605
aF-0.013531177304685116
aF-0.0024108886718750004
aF1.0
asg16
VSpine
p27
sbag0
(g8
g2
Ntp28
Rp29
(dp30
g12
I2
sg13
I3
sg14
(lp31
F0.9944695496344168
aF-0.10502530575864558
aF-4.723805654355129e-07
aF0.0
aF0.10502530575928187
aF0.9944695496331349
aF1.6245309063273053e-06
aF0.0
aF2.9915123301270534e-07
aF-1.6651584321021134e-06
aF0.9999999999985689
aF0.0
aF17.033470153808608
aF-0.01199007034301669
aF-2.2593885660171075e-05
aF1.0
asg16
VSpine1
p32
sbag0
(g8
g2
Ntp33
Rp34
(dp35
g12
I3
sg13
I4
sg14
(lp36
F0.9978830349082969
aF0.06503421131969724
aF4.814266882745844e-07
aF0.0
aF-0.06503421131773392
aF0.9978830349029343
aF-3.3450889236755047e-06
aF0.0
aF-6.979527447242024e-07
aF3.3066982822161945e-06
aF0.9999999999942893
aF0.0
aF15.128829054306152
aF-0.010683059055626387
aF-2.4251639842978387e-06
aF1.0
asg16
VSpine2
p37
sbag0
(g8
g2
Ntp38
Rp39
(dp40
g12
I4
sg13
I5
sg14
(lp41
F0.9463037933978148
aF0.32327871968458516
aF-3.614086255484856e-08
aF0.0
aF-0.3232787196845854
aF0.9463037933978153
aF-8.271806125530277e-25
aF0.0
aF3.420023533232226e-08
aF1.1683571775028016e-08
aF0.9999999999999993
aF0.0
aF21.197659826557384
aF0.745865732924246
aF3.54368699199796e-07
aF1.0
asg16
VNeck
p42
sbag0
(g8
g2
Ntp43
Rp44
(dp45
g12
I5
sg13
I6
sg14
(lp46
F0.9902680502095422
aF-0.1391732328222337
aF-0.0
aF0.0
aF0.1391732328222337
aF0.9902680502095422
aF0.0
aF0.0
aF0.0
aF-0.0
aF1.0
aF0.0
aF5.0644982976319
aF-0.004096984374889701
aF0.00012617418521512032
aF1.0
asg16
VNeck1
p47
sbag0
(g8
g2
Ntp48
Rp49
(dp50
g12
I6
sg13
I7
sg14
(lp51
F0.9999854977787475
aF0.005385557721861918
aF4.637582380269997e-07
aF0.0
aF-0.0053855577252431616
aF0.9999854977497459
aF7.627645214028526e-06
aF0.0
aF-4.2267238890694003e-07
aF-7.630032192991448e-06
aF0.999999999970802
aF0.0
aF5.366088227499887
aF6.484984579202546e-05
aF-1.993031184680319e-07
aF1.0
asg16
VHead
p52
sbag0
(g8
g2
Ntp53
Rp54
(dp55
g12
I7
sg13
I8
sg14
(lp56
F1.0
aF-9.540979118074387e-18
aF-1.8528845721187818e-22
aF0.0
aF9.540979118074387e-18
aF1.0
aF-2.542546407834869e-21
aF0.0
aF1.8528845721187822e-22
aF2.542546407834869e-21
aF1.0
aF0.0
aF17.895551869413254
aF0.0
aF-6.045511313779173e-16
aF1.0
asg16
VHeadEnd
p57
sbag0
(g8
g2
Ntp58
Rp59
(dp60
g12
I4
sg13
I9
sg14
(lp61
F-0.15603777610834801
aF-0.027505443314855396
aF0.9873680484070843
aF0.0
aF-0.0007873920310735808
aF-0.9996084287695977
aF-0.02797086245659176
aF0.0
aF0.987750774457277
aF-0.005141956906611473
aF0.15595501863749073
aF0.0
aF15.596739817054129
aF-2.8270160166011875
aF3.0582380294809908
aF1.0
asg16
VLeftClavicle
p62
sbag0
(g8
g2
Ntp63
Rp64
(dp65
g12
I9
sg13
I10
sg14
(lp66
F0.88676386399193
aF-0.023804515856316037
aF-0.4616093527463979
aF0.0
aF0.0504114345058838
aF0.9976964751504813
aF0.04539196782872568
aF0.0
aF0.45946549031364803
aF-0.06352234643927661
aF0.8859212011876042
aF0.0
aF15.071186020568213
aF7.579779201627446e-06
aF-0.00013705243176787008
aF1.0
asg16
VLeftArm
p67
sbag0
(g8
g2
Ntp68
Rp69
(dp70
g12
I10
sg13
I11
sg14
(lp71
F0.9228477372414661
aF-0.3851649696796176
aF-7.280179439171781e-08
aF0.0
aF0.38516496967960173
aF0.9228477372413301
aF5.181972675358459e-07
aF0.0
aF-1.3240646361699943e-07
aF-5.062578767196727e-07
aF0.9999999999998631
aF0.0
aF29.652863209660367
aF-1.335309445216204e-05
aF0.00021531591337975442
aF1.0
asg16
VLeftForeArm
p72
sbag0
(g8
g2
Ntp73
Rp74
(dp75
g12
I11
sg13
I12
sg14
(lp76
F0.9859631009031959
aF0.11278149821119737
aF-0.12311416376108776
aF0.0
aF-0.12336341634853504
aF-0.00479300387453474
aF-0.9923499859528778
aF0.0
aF-0.11250880482954322
aF0.9936082531738032
aF0.009187385957462268
aF0.0
aF27.267958376636955
aF0.00022524065355256084
aF-0.0003494576296532159
aF1.0
asg16
VLeftHand
p77
sbag0
(g8
g2
Ntp78
Rp79
(dp80
g12
I12
sg13
I13
sg14
(lp81
F0.8785257310093676
aF0.4759745761467024
aF-0.0405060836964432
aF0.0
aF-0.47674317912214464
aF0.878967707746128
aF-0.011476493368104359
aF0.0
aF0.030141020469901574
aF0.029393393840868046
aF0.9991133805947895
aF0.0
aF17.02973824870104
aF0.5584621185512617
aF-0.7118864784367762
aF1.0
asg16
VLeftHandEnd
p82
sbag0
(g8
g2
Ntp83
Rp84
(dp85
g12
I4
sg13
I14
sg14
(lp86
F-0.15603730213979783
aF-0.027505102687609057
aF-0.9873681327990477
aF0.0
aF-0.0007883463390871065
aF-0.9996084335206996
aF0.027970665782982664
aF0.0
aF-0.9877508485701155
aF0.005142855280653975
aF0.15595451961574935
aF0.0
aF15.596739817053987
aF-2.826928278573317
aF-3.0582718849172013
aF1.0
asg16
VRightClavicle
p87
sbag0
(g8
g2
Ntp88
Rp89
(dp90
g12
I14
sg13
I15
sg14
(lp91
F0.8867642462885826
aF-0.023804590740210442
aF0.4616086144819365
aF0.0
aF0.050411698825996595
aF0.9976964407736565
aF-0.04539242986506341
aF0.0
aF-0.4594647234834455
aF0.06352285830524926
aF0.8859215621865246
aF0.0
aF15.071220352843188
aF6.626099201767488e-06
aF0.00016756999741573964
aF1.0
asg16
VRightArm
p92
sbag0
(g8
g2
Ntp93
Rp94
(dp95
g12
I15
sg13
I16
sg14
(lp96
F0.9228500836418975
aF-0.38515934770154564
aF5.126320198479275e-07
aF0.0
aF0.38515934770159627
aF0.9228500836420187
aF-1.3234889800848443e-23
aF0.0
aF-4.7308250239423684e-07
aF1.9744501437557952e-07
aF0.9999999999998685
aF0.0
aF29.652782864317395
aF-1.0931883174469803e-05
aF-0.00010922718769279527
aF1.0
asg16
VRightForeArm
p97
sbag0
(g8
g2
Ntp98
Rp99
(dp100
g12
I16
sg13
I17
sg14
(lp101
F0.9859622897700706
aF0.11278931933132716
aF0.12311349477671116
aF0.0
aF-0.12336263883647006
aF-0.004794566775588205
aF0.9923500750585639
aF0.0
aF0.11251676537592978
aF-0.9936073578502782
aF0.009186726028767356
aF0.0
aF27.26804111927976
aF4.85112285879552e-05
aF0.0003793366176125801
aF1.0
asg16
VRightHand
p102
sbag0
(g8
g2
Ntp103
Rp104
(dp105
g12
I17
sg13
I18
sg14
(lp106
F0.8785316169175075
aF0.47596316617838097
aF0.04051249829078453
aF0.0
aF-0.47673174529331463
aF0.8789739987560053
aF0.011469635585670277
aF0.0
aF-0.030150308553978857
aF-0.029390031512891625
aF0.999113199263112
aF0.0
aF17.029736365465435
aF0.5584444095563583
aF0.7119623798239605
aF1.0
asg16
VRightHandEnd
p107
sbag0
(g8
g2
Ntp108
Rp109
(dp110
g12
I1
sg13
I19
sg14
(lp111
F-0.9987220294740462
aF-0.04122995965541372
aF0.02923009185848186
aF0.0
aF-0.0388188485437673
aF0.9961392028094966
aF0.0787387174380974
aF0.0
aF-0.03236363454524826
aF0.0775034131691853
aF-0.9964666658278882
aF0.0
aF0.0
aF6.110458798502805e-06
aF8.737859725952148
aF1.0
asg16
VLeftUpLeg
p112
sbag0
(g8
g2
Ntp113
Rp114
(dp115
g12
I19
sg13
I20
sg14
(lp116
F0.9969258196984366
aF-0.07835119638036796
aF6.660717826536101e-06
aF0.0
aF0.0783511963685115
aF0.9969258197195666
aF2.02314141477151e-06
aF0.0
aF-6.798757129434251e-06
aF-1.495046702904767e-06
aF0.9999999999757708
aF0.0
aF43.68932203181658
aF9.012222289994654e-05
aF0.000307083111581008
aF1.0
asg16
VLeftLeg
p117
sbag0
(g8
g2
Ntp118
Rp119
(dp120
g12
I20
sg13
I21
sg14
(lp121
F0.992609864227663
aF0.11695582011148195
aF0.03235728016986607
aF0.0
aF-0.11132601941142378
aF0.9837673996314746
aF-0.14074168119051936
aF0.0
aF-0.04829259611936215
aF0.13609937385740303
aF0.9895174508798089
aF0.0
aF43.68929154621462
aF-8.036206409656188e-06
aF-1.5258770197590366e-05
aF1.0
asg16
VLeftFoot
p122
sbag0
(g8
g2
Ntp123
Rp124
(dp125
g12
I21
sg13
I22
sg14
(lp126
F5.45948023422671e-06
aF0.9999999999627135
aF6.690840224111343e-06
aF0.0
aF-0.9999999999842687
aF5.459471621116485e-06
aF1.2873120343826247e-06
aF0.0
aF1.2872755058822989e-06
aF-6.6908472520606936e-06
aF0.9999999999767878
aF0.0
aF10.340981268195478
aF14.22931779644006
aF3.638199532574049e-05
aF1.0
asg16
VLeftFootToes
p127
sbag0
(g8
g2
Ntp128
Rp129
(dp130
g12
I22
sg13
I23
sg14
(lp131
F1.0
aF-5.551115232565655e-16
aF-1.7005033449077334e-17
aF0.0
aF5.551115232565655e-16
aF1.0
aF-2.9646153153947716e-21
aF0.0
aF1.7005033449077334e-17
aF2.9646153153853315e-21
aF1.0
aF0.0
aF7.0
aF-6.439293542825908e-15
aF-3.552713678800501e-15
aF1.0
asg16
VLeftFootToesEnd
p132
sbag0
(g8
g2
Ntp133
Rp134
(dp135
g12
I1
sg13
I24
sg14
(lp136
F-0.9987220340313501
aF-0.04122995984355162
aF-0.029229935880562746
aF0.0
aF-0.03881886082006205
aF0.9961392023026978
aF-0.07873871779739286
aF0.0
aF0.03236347918434203
aF-0.07750341958290577
aF-0.9964666703749006
aF0.0
aF0.0
aF5.527712346520282e-06
aF-8.737859725952148
aF1.0
asg16
VRightUpLeg
p137
sbag0
(g8
g2
Ntp138
Rp139
(dp140
g12
I24
sg13
I25
sg14
(lp141
F0.9969260798903083
aF-0.07834788596090196
aF6.61744490042422e-24
aF0.0
aF0.07834788596082236
aF0.9969260798892955
aF-1.425500520675171e-06
aF0.0
aF1.1168495223106465e-07
aF1.4211186459582918e-06
aF0.9999999999989839
aF0.0
aF43.689230479093126
aF1.597404479891651e-05
aF3.8146970364749677e-06
aF1.0
asg16
VRightLeg
p142
sbag0
(g8
g2
Ntp143
Rp144
(dp145
g12
I25
sg13
I26
sg14
(lp146
F0.9926097425531932
aF0.11695628318196775
aF-0.032359338879877894
aF0.0
aF-0.11132637181175777
aF0.9837678700505448
aF0.14073811422441562
aF0.0
aF0.04829428462782814
aF-0.13609557553599516
aF0.9895178908902115
aF0.0
aF43.68935379196911
aF5.468788781826106e-07
aF9.536736804705015e-07
aF1.0
asg16
VRightFoot
p147
sbag0
(g8
g2
Ntp148
Rp149
(dp150
g12
I26
sg13
I27
sg14
(lp151
F9.853696033013115e-06
aF0.9999999999475688
aF-2.7870349483317425e-06
aF0.0
aF-0.9999999999483284
aF9.853702999551572e-06
aF2.499618277852354e-06
aF0.0
aF2.499645740335926e-06
aF2.7870103177090223e-06
aF0.9999999999929922
aF0.0
aF10.34105312785205
aF14.229347374339614
aF-0.00041966064021359273
aF1.0
asg16
VRightFootToes
p152
sbag0
(g8
g2
Ntp153
Rp154
(dp155
g12
I27
sg13
I28
sg14
(lp156
F1.0
aF-4.440892270807538e-16
aF-1.3784693592955289e-17
aF0.0
aF4.440892270807538e-16
aF1.0
aF-4.23516473630211e-22
aF0.0
aF1.3784693592955289e-17
aF4.2351647362408937e-22
aF1.0
aF0.0
aF7.0
aF-7.216449660063518e-15
aF1.7763568394002505e-15
aF1.0
asg16
VRightFootToesEnd
p157
sbasS'_anchors'
p158
(lp159
g0
(g8
g2
Ntp160
Rp161
(dp162
g12
I1
sg13
I0
sg14
(lp163
F1.8642127624923786e-06
aF0.0
aF-0.9999999999982624
aF0.0
aF0.999999999998227
aF-2.6631610894334296e-07
aF1.8642127626034013e-06
aF0.0
aF-2.6631610872129846e-07
aF-0.9999999999999647
aF-4.96713781217295e-13
aF0.0
aF-10.442939676936604
aF-0.9156140227157356
aF1.7068993459527354e-06
aF1.0
asg16
S'anchor'
p164
sbag0
(g8
g2
Ntp165
Rp166
(dp167
g12
I1
sg13
I1
sg14
(lp168
F1.8642127624923786e-06
aF0.0
aF-0.9999999999982624
aF0.0
aF0.999999999998227
aF-2.6631610894334296e-07
aF1.8642127626034013e-06
aF0.0
aF-2.6631610872129846e-07
aF-0.9999999999999647
aF-4.96713781217295e-13
aF0.0
aF0.4055182797234096
aF-15.26751891478396
aF9.250342701672585
aF1.0
asg16
g164
sbag0
(g8
g2
Ntp169
Rp170
(dp171
g12
I1
sg13
I2
sg14
(lp172
F1.86421276304749e-06
aF-5.551115123125783e-17
aF0.9999999999982624
aF0.0
aF0.9999999999982269
aF-2.6631610894334296e-07
aF-1.8642127631030016e-06
aF0.0
aF2.663161087768096e-07
aF0.9999999999999647
aF-4.9649173661237e-13
aF0.0
aF0.4055182797234096
aF-15.267553403891695
aF-9.250285777801052
aF1.0
asg16
g164
sbag0
(g8
g2
Ntp173
Rp174
(dp175
g12
I2
sg13
I3
sg14
(lp176
F5.805153621141201e-07
aF-5.551115123125783e-17
aF-0.9999999999998315
aF0.0
aF0.9988898639454844
aF0.047106684309499144
aF5.798709111215493e-07
aF0.0
aF0.047106684309491165
aF-0.9988898639456529
aF2.734615389687889e-08
aF0.0
aF8.24332941226956
aF12.065420378571503
aF0.0024025072940618776
aF1.0
asg16
g164
sbag0
(g8
g2
Ntp177
Rp178
(dp179
g12
I2
sg13
I4
sg14
(lp180
F5.805153621141201e-07
aF-5.551115123125783e-17
aF-0.9999999999998315
aF0.0
aF0.9988898639454844
aF0.047106684309499144
aF5.798709111215493e-07
aF0.0
aF0.047106684309491165
aF-0.9988898639456529
aF2.734615389687889e-08
aF0.0
aF8.860641193297582
aF-1.0244463944880424
aF15.323714667249353
aF1.0
asg16
g164
sbag0
(g8
g2
Ntp181
Rp182
(dp183
g12
I2
sg13
I5
sg14
(lp184
F5.805153621141201e-07
aF-5.551115123125783e-17
aF0.9999999999998315
aF0.0
aF0.9988898639454844
aF0.047106684309499144
aF-5.798709111215493e-07
aF0.0
aF-0.047106684309491165
aF0.9988898639456529
aF2.734615389687889e-08
aF0.0
aF8.86062928407138
aF-1.024459608168205
aF-15.318898843285234
aF1.0
asg16
g164
sbag0
(g8
g2
Ntp185
Rp186
(dp187
g12
I4
sg13
I6
sg14
(lp188
F1.338445330123505e-06
aF0.0
aF-0.999999999999104
aF0.0
aF0.9961949711774252
aF0.08715262129753085
aF1.3333525071823613e-06
aF0.0
aF0.08715262129745306
aF-0.9961949711783178
aF1.166490187776148e-07
aF0.0
aF-1.4102673898391629
aF14.025174678603898
aF10.30380314219479
aF1.0
asg16
g164
sbag0
(g8
g2
Ntp189
Rp190
(dp191
g12
I4
sg13
I7
sg14
(lp192
F1.338445330123505e-06
aF0.0
aF0.999999999999104
aF0.0
aF0.9961949711774252
aF0.08715262129753085
aF-1.3333525071823613e-06
aF0.0
aF-0.08715262129745306
aF0.9961949711783178
aF1.166490187776148e-07
aF0.0
aF-1.4102774177577828
aF14.025200366235518
aF-10.298904146129752
aF1.0
asg16
g164
sbag0
(g8
g2
Ntp193
Rp194
(dp195
g12
I7
sg13
I8
sg14
(lp196
F6.340186860298578e-06
aF1.1102230246251559e-16
aF-0.9999999999799006
aF0.0
aF0.9942072495147868
aF-0.10747997475115299
aF6.303459739787074e-06
aF0.0
aF-0.10747997474899296
aF-0.9942072495347696
aF-6.814431234847263e-07
aF0.0
aF2.507554901273494
aF11.305099815989134
aF0.002221434911415242
aF1.0
asg16
g164
sbag0
(g8
g2
Ntp197
Rp198
(dp199
g12
I7
sg13
I9
sg14
(lp200
F6.340186860298578e-06
aF1.1102230246251559e-16
aF-0.9999999999799006
aF0.0
aF0.9942072495147868
aF-0.10747997475115299
aF6.303459739787074e-06
aF0.0
aF-0.10747997474899296
aF-0.9942072495347696
aF-6.814431234847263e-07
aF0.0
aF-1.2751956355069183
aF9.212923823029419
aF0.0022371382157033784
aF1.0
asg16
g164
sbag0
(g8
g2
Ntp201
Rp202
(dp203
g12
I7
sg13
I10
sg14
(lp204
F6.340186860298578e-06
aF1.1102230246251559e-16
aF-0.9999999999799006
aF0.0
aF0.9942072495147868
aF-0.10747997475115299
aF6.303459739787074e-06
aF0.0
aF-0.10747997474899296
aF-0.9942072495347696
aF-6.814431234847263e-07
aF0.0
aF-5.306170706810661
aF8.57590663328914
aF0.0022438310657292362
aF1.0
asg16
g164
sbag0
(g8
g2
Ntp205
Rp206
(dp207
g12
I7
sg13
I11
sg14
(lp208
F6.340186860298578e-06
aF1.1102230246251559e-16
aF-0.9999999999799006
aF0.0
aF0.9942072495147868
aF-0.10747997475115299
aF6.303459739787074e-06
aF0.0
aF-0.10747997474899296
aF-0.9942072495347696
aF-6.814431234847263e-07
aF0.0
aF-1.9616757986281073
aF2.8628716970848203
aF6.396791679666045
aF1.0
asg16
g164
sbag0
(g8
g2
Ntp209
Rp210
(dp211
g12
I7
sg13
I12
sg14
(lp212
F6.340186860298578e-06
aF1.1102230246251559e-16
aF-0.9999999999799006
aF0.0
aF0.9942072495147868
aF-0.10747997475115299
aF6.303459739787074e-06
aF0.0
aF-0.10747997474899296
aF-0.9942072495347696
aF-6.814431234847263e-07
aF0.0
aF3.456041462735584
aF-2.410332725822233
aF8.703330553956544
aF1.0
asg16
g164
sbag0
(g8
g2
Ntp213
Rp214
(dp215
g12
I7
sg13
I13
sg14
(lp216
F6.340186860298578e-06
aF1.1102230246251559e-16
aF-0.9999999999799006
aF0.0
aF0.9942072495147868
aF-0.10747997475115299
aF6.303459739787074e-06
aF0.0
aF-0.10747997474899296
aF-0.9942072495347696
aF-6.814431234847263e-07
aF0.0
aF5.844858087358176
aF7.5393272702403085
aF3.2584952914053282
aF1.0
asg16
g164
sbag0
(g8
g2
Ntp217
Rp218
(dp219
g12
I7
sg13
I14
sg14
(lp220
F6.340186860298578e-06
aF1.1102230246251559e-16
aF0.9999999999799006
aF0.0
aF0.9942072495147868
aF-0.10747997475115299
aF-6.303459739787074e-06
aF0.0
aF0.10747997474899296
aF0.9942072495347696
aF-6.814431234847263e-07
aF0.0
aF-1.961684289525465
aF2.8627910580497797
aF-6.392236412843166
aF1.0
asg16
g164
sbag0
(g8
g2
Ntp221
Rp222
(dp223
g12
I7
sg13
I15
sg14
(lp224
F6.340186860298578e-06
aF1.1102230246251559e-16
aF0.9999999999799006
aF0.0
aF0.9942072495147868
aF-0.10747997475115299
aF-6.303459739787074e-06
aF0.0
aF0.10747997474899296
aF0.9942072495347696
aF-6.814431234847263e-07
aF0.0
aF3.456029909160918
aF-2.41044245145817
aF-8.698715982232905
aF1.0
asg16
g164
sbag0
(g8
g2
Ntp225
Rp226
(dp227
g12
I7
sg13
I16
sg14
(lp228
F6.340186860298578e-06
aF1.1102230246251559e-16
aF0.9999999999799006
aF0.0
aF0.9942072495147868
aF-0.10747997475115299
aF-6.303459739787074e-06
aF0.0
aF0.10747997474899296
aF0.9942072495347696
aF-6.814431234847263e-07
aF0.0
aF5.844853763573127
aF7.539286206753127
aF-3.254009363855584
aF1.0
asg16
g164
sbag0
(g8
g2
Ntp229
Rp230
(dp231
g12
I9
sg13
I17
sg14
(lp232
F-0.9873680067522358
aF0.027969616519476086
aF-0.1559555058145429
aF0.0
aF-0.15784159081905258
aF-0.08790288029699296
aF0.983544160596362
aF0.0
aF0.013800414842577527
aF0.9957363025355889
aF0.09120726047265525
aF0.0
aF13.658441064188743
aF-1.0005241910906806
aF7.9910730535405605
aF1.0
asg16
g164
sbag0
(g8
g2
Ntp233
Rp234
(dp235
g12
I14
sg13
I18
sg14
(lp236
F-0.9873681744523207
aF0.02797191171958943
aF0.15595403243726155
aF0.0
aF-0.1578403460448975
aF-0.08790385243386888
aF-0.9835442734761417
aF0.0
aF-0.013802653336150538
aF-0.995736152242167
aF0.0912085625303126
aF0.0
aF13.653640538101264
aF-1.0003472613691766
aF-7.990289166144947
aF1.0
asg16
g164
sbag0
(g8
g2
Ntp237
Rp238
(dp239
g12
I19
sg13
I19
sg14
(lp240
F-0.029230014997014154
aF-0.07874057445337597
aF0.9964665213433043
aF0.0
aF-0.9987220184937937
aF-0.03881911383164049
aF-0.03236365518614935
aF0.0
aF0.04123028012221302
aF-0.9961390456839238
aF-0.07750526217596687
aF0.0
aF9.993748393396231
aF11.414366888446281
aF0.5829767267363337
aF1.0
asg16
g164
sbag0
(g8
g2
Ntp241
Rp242
(dp243
g12
I19
sg13
I20
sg14
(lp244
F-0.029230014997014154
aF-0.07874057445337597
aF0.9964665213433043
aF0.0
aF-0.9987220184937937
aF-0.03881911383164049
aF-0.03236365518614935
aF0.0
aF0.04123028012221302
aF-0.9961390456839238
aF-0.07750526217596687
aF0.0
aF10.757307974176186
aF0.2744259183435136
aF-9.618007286401951
aF1.0
asg16
g164
sbag0
(g8
g2
Ntp245
Rp246
(dp247
g12
I24
sg13
I21
sg14
(lp248
F-0.029230012741929153
aF-0.0787368607818412
aF-0.9964668148560328
aF0.0
aF-0.9987220230511266
aF-0.038819126108016626
aF0.03236349982425517
aF0.0
aF-0.04123017132842548
aF0.9961393387485661
aF-0.07750155333796747
aF0.0
aF9.993750955898918
aF11.414336103934033
aF-0.5829316355680803
aF1.0
asg16
g164
sbag0
(g8
g2
Ntp249
Rp250
(dp251
g12
I24
sg13
I22
sg14
(lp252
F-0.029230012741929153
aF-0.0787368607818412
aF-0.9964668148560328
aF0.0
aF-0.9987220230511266
aF-0.038819126108016626
aF0.03236349982425517
aF0.0
aF-0.04123017132842548
aF0.9961393387485661
aF-0.07750155333796747
aF0.0
aF10.757309218966085
aF0.27435706615578903
aF9.618010904405429
aF1.0
asg16
g164
sbasb.