ccopy_reg
_reconstructor
p0
(c__main__
DataSkeleton
p1
c__builtin__
object
p2
Ntp3
Rp4
(dp5
S'_bones'
p6
(lp7
g0
(c__main__
DataBone
p8
g2
Ntp9
Rp10
(dp11
S'_parentId'
p12
I-1
sS'_id'
p13
I0
sS'_matrix'
p14
(lp15
F1.0
aF0.0
aF-0.0
aF0.0
aF-0.0
aF2.220446049250313e-16
aF-1.0
aF0.0
aF0.0
aF1.0
aF2.220446049250313e-16
aF0.0
aF0.0
aF0.0
aF0.0
aF1.0
asS'_name'
p16
S'Human_Base'
p17
sbag0
(g8
g2
Ntp18
Rp19
(dp20
g12
I0
sg13
I1
sg14
(lp21
F1.1102230246251565e-16
aF2.6631610908693876e-07
aF0.9999999999999647
aF0.0
aF-1.8642127629789463e-06
aF0.9999999999982269
aF-2.6631610908647564e-07
aF0.0
aF-0.9999999999982625
aF-1.8642127629788802e-06
aF4.966027589148325e-13
aF0.0
aF0.0
aF0.0
aF98.01000213623047
aF1.0
asg16
VHips
p22
sbag0
(g8
g2
Ntp23
Rp24
(dp25
g12
I1
sg13
I2
sg14
(lp26
F0.9988898514002654
aF-0.047106950329316916
aF4.76466545156778e-07
aF0.0
aF0.04710695032995507
aF0.998889851399324
aF-1.4309241116687027e-06
aF0.0
aF-4.085311254350038e-07
aF1.4517804591463927e-06
aF0.9999999999988627
aF0.0
aF7.2397990226745605
aF-0.013531177304685116
aF-0.002410888671875
aF1.0
asg16
VSpine
p27
sbag0
(g8
g2
Ntp28
Rp29
(dp30
g12
I2
sg13
I3
sg14
(lp31
F0.9944694903594126
aF-0.10502529949864954
aF-4.7238053727943706e-07
aF0.0
aF0.10502529949928584
aF0.9944694903581307
aF1.6245308094977177e-06
aF0.0
aF2.9915123301270534e-07
aF-1.6651584321021134e-06
aF0.9999999999985689
aF0.0
aF17.033470153808594
aF-0.011990070343017578
aF-2.259388566017151e-05
aF1.0
asg16
VSpine1
p32
sbag0
(g8
g2
Ntp33
Rp34
(dp35
g12
I3
sg13
I4
sg14
(lp36
F0.9978829754298331
aF0.06503420744335617
aF4.814266595793176e-07
aF0.0
aF-0.06503420744139285
aF0.9978829754244705
aF-3.3450887242926674e-06
aF0.0
aF-6.979527447242024e-07
aF3.306698282216194e-06
aF0.9999999999942893
aF0.0
aF15.128829956054688
aF-0.010683059692382812
aF-2.425163984298706e-06
aF1.0
asg16
VSpine2
p37
sbag0
(g8
g2
Ntp38
Rp39
(dp40
g12
I4
sg13
I5
sg14
(lp41
F0.9463037933978148
aF0.3232787196845851
aF-3.614086255484856e-08
aF0.0
aF-0.3232787196845853
aF0.9463037933978155
aF-8.271806125530277e-25
aF0.0
aF3.420023533232226e-08
aF1.1683571775028016e-08
aF0.9999999999999993
aF0.0
aF21.197662353515625
aF0.7458658218383789
aF3.543682396411896e-07
aF1.0
asg16
VNeck
p42
sbag0
(g8
g2
Ntp43
Rp44
(dp45
g12
I5
sg13
I6
sg14
(lp46
F0.9902680502095422
aF-0.1391732328222337
aF-0.0
aF0.0
aF0.1391732328222337
aF0.9902680502095422
aF0.0
aF0.0
aF0.0
aF-0.0
aF1.0
aF0.0
aF5.0644989013671875
aF-0.00409698486328125
aF0.0001261741854250431
aF1.0
asg16
VNeck1
p47
sbag0
(g8
g2
Ntp48
Rp49
(dp50
g12
I6
sg13
I7
sg14
(lp51
F0.9999854977787475
aF0.005385557721861918
aF4.637582380269997e-07
aF0.0
aF-0.0053855577252431616
aF0.9999854977497459
aF7.627645214028526e-06
aF0.0
aF-4.2267238890694003e-07
aF-7.630032192991448e-06
aF0.999999999970802
aF0.0
aF5.3660888671875
aF6.4849853515625e-05
aF-1.9930304517856712e-07
aF1.0
asg16
VHead
p52
sbag0
(g8
g2
Ntp53
Rp54
(dp55
g12
I4
sg13
I8
sg14
(lp56
F-0.15603777610834801
aF-0.027505443314855396
aF0.9873680484070843
aF0.0
aF-0.0007873921249380255
aF-0.9996085479322083
aF-0.027970865790978402
aF0.0
aF0.987750774457277
aF-0.005141956906611473
aF0.15595501863749073
aF0.0
aF15.596741676330566
aF-2.8270163536071777
aF3.0582380294799805
aF1.0
asg16
VLeftClavicle
p57
sbag0
(g8
g2
Ntp58
Rp59
(dp60
g12
I8
sg13
I9
sg14
(lp61
F0.88676386399193
aF-0.023804515856316037
aF-0.4616093527463979
aF0.0
aF0.05041143150112815
aF0.9976964156831373
aF0.045391965123153556
aF0.0
aF0.45946546292737067
aF-0.06352234265304971
aF0.8859211483825857
aF0.0
aF15.071186065673828
aF7.62939453125e-06
aF-0.0001373291015625
aF1.0
asg16
VLeftArm
p62
sbag0
(g8
g2
Ntp63
Rp64
(dp65
g12
I9
sg13
I10
sg14
(lp66
F0.9228477372414661
aF-0.3851649696796176
aF-7.280179439171781e-08
aF0.0
aF0.38516496967960173
aF0.9228477372413301
aF5.181972675358459e-07
aF0.0
aF-1.3240646361699943e-07
aF-5.062578767196727e-07
aF0.9999999999998631
aF0.0
aF29.652864456176758
aF-1.33514404296875e-05
aF0.000213623046875
aF1.0
asg16
VLeftForeArm
p67
sbag0
(g8
g2
Ntp68
Rp69
(dp70
g12
I10
sg13
I11
sg14
(lp71
F0.9859631009031959
aF0.11278149821119733
aF-0.12311416376108775
aF0.0
aF-0.12336341634853505
aF-0.00479300387453474
aF-0.9923499859528778
aF0.0
aF-0.11250879812349583
aF0.9936081939501362
aF0.009187385409851392
aF0.0
aF27.267959594726562
aF0.00022506712411995977
aF-0.0003509521484375
aF1.0
asg16
VLeftHand
p72
sbag0
(g8
g2
Ntp73
Rp74
(dp75
g12
I11
sg13
I12
sg14
(lp76
F0.9959699281808839
aF-0.036654341646864284
aF-0.08185573527737662
aF0.0
aF0.04518091891371916
aF0.9934590425089898
aF0.10487046973878399
aF0.0
aF0.07747635774810832
aF-0.1081461451062093
aF0.9911113489812675
aF0.0
aF1.1402359008789062
aF-0.0083160400390625
aF-2.4251937866210938
aF1.0
asg16
VLeftHandIndex
p77
sbag0
(g8
g2
Ntp78
Rp79
(dp80
g12
I12
sg13
I13
sg14
(lp81
F0.994473142292759
aF0.10499128161221166
aF6.617490121167708e-06
aF0.0
aF-0.10499128161472551
aF0.9944731423145103
aF3.268047436745631e-08
aF0.0
aF-6.577485030145346e-06
aF-7.272786229300053e-07
aF0.9999999999781038
aF0.0
aF7.625316619873047
aF-0.0001220703125
aF-2.8610231311176904e-05
aF1.0
asg16
VLeftHandIndex1
p82
sbag0
(g8
g2
Ntp83
Rp84
(dp85
g12
I13
sg13
I14
sg14
(lp86
F0.9780494035146179
aF0.20837313714691552
aF5.028750420020667e-07
aF0.0
aF-0.20837313714663747
aF0.9780494035146495
aF-5.539362800186186e-07
aF0.0
aF-6.072620753194975e-07
aF4.3699139816259865e-07
aF0.9999999999997201
aF0.0
aF4.726055145263672
aF0.0005035400390625
aF0.000186920166015625
aF1.0
asg16
VLeftHandIndex2
p87
sbag0
(g8
g2
Ntp88
Rp89
(dp90
g12
I14
sg13
I15
sg14
(lp91
F0.9944728574354301
aF0.10499397971204988
aF-6.959629071033098e-06
aF0.0
aF-0.10499397971412508
aF0.9944728574595615
aF6.752301895234148e-08
aF0.0
aF6.928251719610897e-06
aF6.635693439016824e-07
aF0.9999999999757795
aF0.0
aF2.7680587768554688
aF-0.0003204345703125
aF-0.00012683868408203125
aF1.0
asg16
VLeftHandIndex3
p92
sbag0
(g8
g2
Ntp93
Rp94
(dp95
g12
I11
sg13
I16
sg14
(lp96
F0.9982057777411966
aF-0.052622735046284556
aF-0.02856699214725605
aF0.0
aF0.05173645109476606
aF0.9981817828478871
aF-0.030924889804922064
aF0.0
aF0.030142403434689595
aF0.029391448887131952
aF0.9991133364329642
aF0.0
aF1.178741455078125
aF-0.2939910888671875
aF-0.20842552185058594
aF1.0
asg16
VLeftHandMiddle
p97
sbag0
(g8
g2
Ntp98
Rp99
(dp100
g12
I16
sg13
I17
sg14
(lp101
F0.989272353368515
aF0.1460828902435165
aF6.230616355536829e-06
aF0.0
aF-0.14608289024620968
aF0.9892723533877379
aF-2.3083429771024886e-08
aF0.0
aF-6.167148599235734e-06
aF-8.873506463387269e-07
aF0.9999999999805894
aF0.0
aF7.8725433349609375
aF-0.00030517578125
aF-0.0001277923583984375
aF1.0
asg16
VLeftHandMiddle1
p102
sbag0
(g8
g2
Ntp103
Rp104
(dp105
g12
I17
sg13
I18
sg14
(lp106
F0.9847258299831411
aF0.17411214708919961
aF5.4507659351689464e-08
aF0.0
aF-0.17411214708920467
aF0.9847258299831357
aF1.0783711089613549e-07
aF0.0
aF-3.4899349181508165e-08
aF-1.1568043413271066e-07
aF0.9999999999999927
aF0.0
aF5.185588836669922
aF0.000274658203125
aF4.57763671875e-05
aF1.0
asg16
VLeftHandMiddle2
p107
sbag0
(g8
g2
Ntp108
Rp109
(dp110
g12
I18
sg13
I19
sg14
(lp111
F0.9742639529711755
aF0.22541018147061337
aF-5.510378100766721e-06
aF0.0
aF-0.22541018147403558
aF0.9742639529859669
aF-1.0587911840678754e-22
aF0.0
aF5.3685627509002905e-06
aF1.242095327684378e-06
aF0.9999999999848178
aF0.0
aF2.940258026123047
aF-0.0003662109375
aF-0.000141143798828125
aF1.0
asg16
VLeftHandMiddle3
p112
sbag0
(g8
g2
Ntp113
Rp114
(dp115
g12
I11
sg13
I20
sg14
(lp116
F0.9955713655174936
aF-0.04384839304186879
aF0.08315632621321677
aF0.0
aF0.05446699294031718
aF0.9900086815310704
aF-0.1300621281278727
aF0.0
aF-0.07662246956130146
aF0.13401540553517544
aF0.9880125850603169
aF0.0
aF1.1700592041015625
aF-0.0694427490234375
aF1.3123149871826172
aF1.0
asg16
VLeftHandRing
p117
sbag0
(g8
g2
Ntp118
Rp119
(dp120
g12
I20
sg13
I21
sg14
(lp121
F0.9773074784570438
aF0.21182561824652332
aF-2.532399071885036e-06
aF0.0
aF-0.21182561824650423
aF0.9773074784602891
aF2.7882770953048765e-07
aF0.0
aF2.5339954033546986e-06
aF2.6392659332372735e-07
aF0.9999999999967546
aF0.0
aF7.427356243133545
aF-2.288818359375e-05
aF5.7220458984375e-06
aF1.0
asg16
VLeftHandRing1
p122
sbag0
(g8
g2
Ntp123
Rp124
(dp125
g12
I21
sg13
I22
sg14
(lp126
F0.984726942807085
aF0.1741058531236499
aF4.230624476446408e-06
aF0.0
aF-0.17410585312538202
aF0.9847269428158657
aF4.1813023425916796e-08
aF0.0
aF-4.158730014777794e-06
aF-7.777508944525485e-07
aF0.99999999999105
aF0.0
aF5.030941009521484
aF-1.52587890625e-05
aF1.9073486328125e-06
aF1.0
asg16
VLeftHandRing2
p127
sbag0
(g8
g2
Ntp128
Rp129
(dp130
g12
I22
sg13
I23
sg14
(lp131
F0.978049517968047
aF0.20837259992665558
aF1.5089469171873625e-06
aF0.0
aF-0.20837259992681917
aF0.9780495179691748
aF-4.9723944217680265e-08
aF0.0
aF-1.4861859125314185e-06
aF-2.6579071261231714e-07
aF0.9999999999988604
aF0.0
aF2.7516098022460938
aF-0.00018310546875
aF-0.00012969970703125
aF1.0
asg16
VLeftHandRing3
p132
sbag0
(g8
g2
Ntp133
Rp134
(dp135
g12
I11
sg13
I24
sg14
(lp136
F0.9889508663834313
aF-0.006645057282614621
aF0.1480942533790065
aF0.0
aF0.04074481441721283
aF0.9727044816786858
aF-0.22844196683407378
aF0.0
aF-0.14253395100862343
aF0.2319519815399058
aF0.9622278062234444
aF0.0
aF1.195526123046875
aF0.35577392578125
aF2.968212127685547
aF1.0
asg16
VLeftHandPinky
p137
sbag0
(g8
g2
Ntp138
Rp139
(dp140
g12
I24
sg13
I25
sg14
(lp141
F0.9895831416174092
aF0.1429006157585407
aF0.017449946508871335
aF0.0
aF-0.14291726526441298
aF0.9897345945372269
aF-0.0002960837255455624
aF0.0
aF-0.017313127311293412
aF-0.0022008993019348383
aF0.9998476942339597
aF0.0
aF6.304412841796875
aF-0.00012969970703125
aF-6.4849853515625e-05
aF1.0
asg16
VLeftHandPinky1
p142
sbag0
(g8
g2
Ntp143
Rp144
(dp145
g12
I25
sg13
I26
sg14
(lp146
F0.978998636693702
aF0.2038667931563904
aF-4.946771925922463e-08
aF0.0
aF-0.203866793156389
aF0.978998636693703
aF3.1449679052987616e-08
aF0.0
aF5.484037492945804e-08
aF-2.0704367627190683e-08
aF0.9999999999999983
aF0.0
aF3.8000638484954834
aF9.1552734375e-05
aF6.866455078125e-05
aF1.0
asg16
VLeftHandPinky2
p147
sbag0
(g8
g2
Ntp148
Rp149
(dp150
g12
I26
sg13
I27
sg14
(lp151
F0.9961541395545501
aF0.08761741287454765
aF4.6791489121605605e-07
aF0.0
aF-0.08761741287453188
aF0.9961541395546599
aF-5.413044200007675e-08
aF0.0
aF-4.7085818126061265e-07
aF1.2924773201228068e-08
aF0.9999999999998891
aF0.0
aF2.2260513305664062
aF-0.0001373291015625
aF-0.000133514404296875
aF1.0
asg16
VLeftHandPinky3
p152
sbag0
(g8
g2
Ntp153
Rp154
(dp155
g12
I11
sg13
I28
sg14
(lp156
F0.7231844866732509
aF0.5361734592714307
aF-0.4353414979163533
aF0.0
aF0.5498550259479413
aF-0.0655471179943099
aF0.8326842293225142
aF0.0
aF0.4179278031848748
aF-0.841559027576526
aF-0.3422203302399158
aF0.0
aF1.0051918029785156
aF1.392242431640625
aF-2.408212661743164
aF1.0
asg16
VLeftHandThumb1
p157
sbag0
(g8
g2
Ntp158
Rp159
(dp160
g12
I28
sg13
I29
sg14
(lp161
F0.9600907572354903
aF0.27968864450888387
aF1.940595373267986e-06
aF0.0
aF-0.27968864451182185
aF0.9600907572354969
aF1.452611745201827e-06
aF0.0
aF-1.456868671395379e-06
aF-1.9374015999152253e-06
aF0.999999999997062
aF0.0
aF5.239250183105469
aF0.0003108978271484375
aF-0.00018310546875
aF1.0
asg16
VLeftHandThumb2
p162
sbag0
(g8
g2
Ntp163
Rp164
(dp165
g12
I29
sg13
I30
sg14
(lp166
F0.9999545338048069
aF0.009529486136033829
aF2.812147953763141e-06
aF0.0
aF-0.009529486133568245
aF0.9999545338083897
aF-8.888625590132157e-07
aF0.0
aF-2.8204908357670936e-06
aF8.620239236449362e-07
aF0.9999999999956509
aF0.0
aF3.5809402465820312
aF-2.288818359375e-05
aF6.103515625e-05
aF1.0
asg16
VLeftHandThumb3
p167
sbag0
(g8
g2
Ntp168
Rp169
(dp170
g12
I11
sg13
I31
sg14
(lp171
F0.000627095796490444
aF0.9973335030345528
aF-0.072974324643156
aF0.0
aF0.9947597999216804
aF0.006838499117456888
aF0.10200949451415767
aF0.0
aF0.10223652136125663
aF-0.0726558943066565
aF-0.9921029875397754
aF0.0
aF7.334022045135498
aF2.7366180419921875
aF-0.49665355682373047
aF1.0
asg16
VLeftHandProp
p172
sbag0
(g8
g2
Ntp173
Rp174
(dp175
g12
I4
sg13
I32
sg14
(lp176
F-0.15603730213979783
aF-0.027505102687609057
aF-0.9873681327990477
aF0.0
aF-0.0007883464330653135
aF-0.9996085526833108
aF0.02797066911734586
aF0.0
aF-0.9877507896955771
aF0.005142854974115913
aF0.1559545103201356
aF0.0
aF15.596741676330566
aF-2.8269286155700684
aF-3.058271884918213
aF1.0
asg16
VRightClavicle
p177
sbag0
(g8
g2
Ntp178
Rp179
(dp180
g12
I32
sg13
I33
sg14
(lp181
F0.8867641934333147
aF-0.023804589321346267
aF0.461608586967919
aF0.0
aF0.050411698825996595
aF0.9976964407736565
aF-0.04539242986506341
aF0.0
aF-0.4594646960972139
aF0.06352285451899185
aF0.8859215093814846
aF0.0
aF15.071220397949219
aF6.67572021484375e-06
aF0.0001678466796875
aF1.0
asg16
VRightArm
p182
sbag0
(g8
g2
Ntp183
Rp184
(dp185
g12
I33
sg13
I34
sg14
(lp186
F0.9228500286357461
aF-0.3851593247442595
aF5.12631989292678e-07
aF0.0
aF0.38515932474431014
aF0.9228500286358673
aF-1.3234889011987538e-23
aF0.0
aF-4.7308250239423684e-07
aF1.9744501437557952e-07
aF0.9999999999998685
aF0.0
aF29.652786254882812
aF-1.0967254638671875e-05
aF-0.0001068115234375
aF1.0
asg16
VRightForeArm
p187
sbag0
(g8
g2
Ntp188
Rp189
(dp190
g12
I34
sg13
I35
sg14
(lp191
F0.9859622310021385
aF0.11278931260855984
aF0.12311348743857503
aF0.0
aF-0.12336262413049752
aF-0.004794566204031306
aF0.9923499567612164
aF0.0
aF0.11251675196288612
aF-0.993607239403051
aF0.009186724933624272
aF0.0
aF27.26804542541504
aF4.9591064453125e-05
aF0.0003814697265625
aF1.0
asg16
VRightHand
p192
sbag0
(g8
g2
Ntp193
Rp194
(dp195
g12
I35
sg13
I36
sg14
(lp196
F0.7231776534154577
aF0.5361784661255721
aF0.43534668261483395
aF0.0
aF0.5498570186108541
aF-0.06553438906064124
aF-0.8326839153813598
aF0.0
aF-0.4179369558198996
aF0.8415567286056139
aF-0.342214457730891
aF0.0
aF1.0052986145019531
aF1.3921051025390625
aF2.4081764221191406
aF1.0
asg16
VRightHandThumb1
p197
sbag0
(g8
g2
Ntp198
Rp199
(dp200
g12
I36
sg13
I37
sg14
(lp201
F0.9600889136980517
aF0.27969497277229516
aF1.3234889800848446e-23
aF0.0
aF-0.27969497277226596
aF0.9600889136979515
aF-4.5713916866539957e-07
aF0.0
aF-1.2785952733301856e-07
aF4.3889424785279397e-07
aF0.9999999999998955
aF0.0
aF5.23919677734375
aF0.000274658203125
aF0.000274658203125
aF1.0
asg16
VRightHandThumb2
p202
sbag0
(g8
g2
Ntp203
Rp204
(dp205
g12
I37
sg13
I38
sg14
(lp206
F0.9999545353056831
aF0.009529329058320987
aF-8.734793477326508e-08
aF0.0
aF-0.00952932905828235
aF0.9999545353055938
aF4.325596428575229e-07
aF0.0
aF9.146597760383662e-08
aF-4.317076609161328e-07
aF0.9999999999999026
aF0.0
aF3.5809707641601562
aF-0.0001354217529296875
aF-0.00012969970703125
aF1.0
asg16
VRightHandThumb3
p207
sbag0
(g8
g2
Ntp208
Rp209
(dp210
g12
I35
sg13
I39
sg14
(lp211
F0.9959707300451026
aF-0.036654001804400496
aF0.0818461303003899
aF0.0
aF0.045179501676738024
aF0.993459151312999
aF-0.10487004958851384
aF0.0
aF-0.07746687554224764
aF0.108145260783719
aF0.9911121866642835
aF0.0
aF1.1402664184570312
aF-0.0083770751953125
aF2.4251670837402344
aF1.0
asg16
VRightHandIndex
p212
sbag0
(g8
g2
Ntp213
Rp214
(dp215
g12
I39
sg13
I40
sg14
(lp216
F0.994473016489805
aF0.10499247341340442
aF4.511525065984825e-07
aF0.0
aF-0.10499247341341511
aF0.9944730164899063
aF0.0
aF0.0
aF-4.486589941339752e-07
aF-4.7367617554436756e-08
aF0.9999999999998982
aF0.0
aF7.625293731689453
aF-0.000152587890625
aF4.673004150390625e-05
aF1.0
asg16
VRightHandIndex1
p217
sbag0
(g8
g2
Ntp218
Rp219
(dp220
g12
I40
sg13
I41
sg14
(lp221
F0.9780506833064113
aF0.20836713004644392
aF-2.6488793840777153e-07
aF0.0
aF-0.20836713004644491
aF0.9780506833064467
aF2.4136574829667193e-08
aF0.0
aF2.6410309798576593e-07
aF3.1587146005114495e-08
aF0.9999999999999646
aF0.0
aF4.726036071777344
aF0.00048828125
aF-0.00018405914306640625
aF1.0
asg16
VRightHandIndex2
p222
sbag0
(g8
g2
Ntp223
Rp224
(dp225
g12
I41
sg13
I42
sg14
(lp226
F0.9944729449816695
aF0.10499258302469895
aF3.2547808172013704e-08
aF0.0
aF-0.1049925830247005
aF0.9944729449816685
aF5.0585227078636046e-08
aF0.0
aF-2.7056844217071025e-08
aF-5.3722924601501336e-08
aF0.9999999999999982
aF0.0
aF2.7680397033691406
aF-0.0002899169921875
aF0.0001735687255859375
aF1.0
asg16
VRightHandIndex3
p227
sbag0
(g8
g2
Ntp228
Rp229
(dp230
g12
I35
sg13
I43
sg14
(lp231
F0.9982055756838669
aF-0.05262231203304417
aF0.028574830707053182
aF0.0
aF0.05173582657270826
aF0.9981818450563875
aF0.030923926648772918
aF0.0
aF-0.03015016755182899
aF-0.02939009526882563
aF0.9991132016426797
aF0.0
aF1.1787452697753906
aF-0.2939910888671875
aF0.2084197998046875
aF1.0
asg16
VRightHandMiddle
p232
sbag0
(g8
g2
Ntp233
Rp234
(dp235
g12
I43
sg13
I44
sg14
(lp236
F0.9892729630783936
aF0.14607835333347946
aF4.3377515373344456e-07
aF0.0
aF-0.14607835333349323
aF0.9892729630784868
aF0.0
aF0.0
aF-4.2912208279904795e-07
aF-6.336516772808085e-08
aF0.999999999999906
aF0.0
aF7.872577667236328
aF-0.0003509521484375
aF0.00010108947026310489
aF1.0
asg16
VRightHandMiddle1
p237
sbag0
(g8
g2
Ntp238
Rp239
(dp240
g12
I44
sg13
I45
sg14
(lp241
F0.9847266319989179
aF0.174107268724437
aF-3.1357793197849907e-07
aF0.0
aF-0.17410726872444554
aF0.9847266319989663
aF0.0
aF0.0
aF3.0878857763685424e-07
aF5.459620377741093e-08
aF0.9999999999999508
aF0.0
aF5.185558319091797
aF0.00031280517578125
aF-0.00011253356205997989
aF1.0
asg16
VRightHandMiddle2
p242
sbag0
(g8
g2
Ntp243
Rp244
(dp245
g12
I45
sg13
I46
sg14
(lp246
F0.9742648309226281
aF0.22540638683786862
aF0.0
aF0.0
aF-0.22540638683786857
aF0.9742648309226278
aF-2.405304754089738e-08
aF0.0
aF-5.4217105386331595e-09
aF2.3434038295606318e-08
aF0.9999999999999997
aF0.0
aF2.9402618408203125
aF-0.00032806396484375
aF0.000141143798828125
aF1.0
asg16
VRightHandMiddle3
p247
sbag0
(g8
g2
Ntp248
Rp249
(dp250
g12
I35
sg13
I47
sg14
(lp251
F0.9955714195143428
aF-0.04384784336405213
aF-0.08315596959039064
aF0.0
aF0.05446636282244741
aF0.9900087761811656
aF0.13006167154532597
aF0.0
aF0.07662221588475461
aF-0.13401488617535098
aF0.9880126751799887
aF0.0
aF1.1694183349609375
aF-0.0701904296875
aF-1.312124252319336
aF1.0
asg16
VRightHandRing
p252
sbag0
(g8
g2
Ntp253
Rp254
(dp255
g12
I47
sg13
I48
sg14
(lp256
F0.9773082276059359
aF0.21182188046671893
aF-3.353622428460047e-08
aF0.0
aF-0.21182188046667175
aF0.9773082276058024
aF5.311186312495455e-07
aF0.0
aF1.4527779245682406e-07
aF-5.119629630940071e-07
aF0.9999999999998584
aF0.0
aF7.427318572998047
aF-1.52587890625e-05
aF-1.9073486328125e-06
aF1.0
asg16
VRightHandRing1
p257
sbag0
(g8
g2
Ntp258
Rp259
(dp260
g12
I48
sg13
I49
sg14
(lp261
F0.9847266617135041
aF0.17410744300740863
aF4.135903062765139e-25
aF0.0
aF-0.17410744300740852
aF0.9847266617135034
aF3.659932212772047e-08
aF0.0
aF6.372214391461881e-09
aF-3.604032829980736e-08
aF0.9999999999999993
aF0.0
aF5.030921936035156
aF1.52587890625e-05
aF-3.814697265625e-06
aF1.0
asg16
VRightHandRing2
p262
sbag0
(g8
g2
Ntp263
Rp264
(dp265
g12
I49
sg13
I50
sg14
(lp266
F0.9780506278148304
aF0.208367390517084
aF-3.4199056273996685e-07
aF0.0
aF-0.20836739051725947
aF0.9780506278146686
aF-6.005346654728861e-07
aF0.0
aF2.0935224343488108e-07
aF6.586129877299814e-07
aF0.9999999999997612
aF0.0
aF2.7525100708007812
aF0.00020599366689566523
aF-0.00012969970703125
aF1.0
asg16
VRightHandRing3
p267
sbag0
(g8
g2
Ntp268
Rp269
(dp270
g12
I35
sg13
I51
sg14
(lp271
F-0.0006010698290312977
aF-0.997339191431659
aF-0.07289839469772666
aF0.0
aF0.9947676374436278
aF0.006851083015266268
aF-0.10193336135113465
aF0.0
aF0.10216156914360552
aF-0.07257823293497054
aF0.9921166332111127
aF0.0
aF7.321498394012451
aF2.7519989013671875
aF0.5070362091064453
aF1.0
asg16
VRightHandProp
p272
sbag0
(g8
g2
Ntp273
Rp274
(dp275
g12
I35
sg13
I52
sg14
(lp276
F0.9889495019586297
aF-0.006644870638364811
aF-0.1481033728876273
aF0.0
aF0.04074687687173586
aF0.9727043243317592
aF0.2284425298658182
aF0.0
aF0.14254282869286963
aF-0.23195288986178086
aF0.9622262721797841
aF0.0
aF1.195556640625
aF0.3557586669921875
aF-2.9682540893554688
aF1.0
asg16
VRightHandPinky
p277
sbag0
(g8
g2
Ntp278
Rp279
(dp280
g12
I52
sg13
I53
sg14
(lp281
F0.9895821169328818
aF0.142908118543735
aF-0.017450028679803643
aF0.0
aF-0.14292459600487228
aF0.9897334729887612
aF0.00030511172214653625
aF0.0
aF0.017314481463196668
aF0.002192105326091223
aF0.9998476901037977
aF0.0
aF6.304393768310547
aF-0.0001220703125
aF7.2479248046875e-05
aF1.0
asg16
VRightHandPinky1
p282
sbag0
(g8
g2
Ntp283
Rp284
(dp285
g12
I53
sg13
I54
sg14
(lp286
F0.9789984324281236
aF0.20386748169823976
aF-9.286082280875863e-08
aF0.0
aF-0.20386748169824281
aF0.978998432428127
aF-2.431730709900442e-08
aF0.0
aF8.595310205021193e-08
aF4.273791272000303e-08
aF0.9999999999999954
aF0.0
aF3.8000528812408447
aF6.103515625e-05
aF-4.57763671875e-05
aF1.0
asg16
VRightHandPinky2
p287
sbag0
(g8
g2
Ntp288
Rp289
(dp290
g12
I54
sg13
I55
sg14
(lp291
F0.9961540100687352
aF0.08761956530315439
aF-2.541372842506678e-07
aF0.0
aF-0.08761956530315722
aF0.9961540100687674
aF1.6543612251060553e-24
aF0.0
aF2.53159874814289e-07
aF2.2267398373368422e-08
aF0.9999999999999677
aF0.0
aF2.226043701171875
aF-0.0001373291015625
aF0.000110626220703125
aF1.0
asg16
VRightHandPinky3
p292
sbag0
(g8
g2
Ntp293
Rp294
(dp295
g12
I4
sg13
I56
sg14
(lp296
F0.08234493657097121
aF-0.9932130117978423
aF-0.08214076580660677
aF0.0
aF0.10710613257170612
aF-0.07312372420040458
aF0.9915549391357975
aF0.0
aF-0.990831706166544
aF-0.09044730832179416
aF0.10035783608244772
aF0.0
aF22.189208984375
aF-14.050692558288574
aF-10.245186805725098
aF1.0
asg16
VSpine2Prop
p297
sbag0
(g8
g2
Ntp298
Rp299
(dp300
g12
I4
sg13
I57
sg14
(lp301
F0.09090530258144058
aF-0.995859541280742
aF-1.6391277047334012e-06
aF0.0
aF-0.0037507557826783064
aF-0.0003440271355645841
aF0.9999929067130371
aF0.0
aF-0.9958524779271454
aF-0.09090465161607543
aF-0.0037664998240489744
aF0.0
aF8.987518310546875
aF-15.123934745788574
aF0.0023956298828125
aF1.0
asg16
VSpine2Jetpack
p302
sbag0
(g8
g2
Ntp303
Rp304
(dp305
g12
I57
sg13
I58
sg14
(lp306
F0.7071079843204461
aF-0.0026634404820219046
aF-0.7071004775742895
aF0.0
aF0.0026742543598887135
aF0.9999958274946504
aF-0.0010924087641278916
aF0.0
aF0.7071004789059624
aF-0.0011185156424447
aF0.7071121987730915
aF0.0
aF7.345028400421143
aF0.19700439274311066
aF10.21087646484375
aF1.0
asg16
VSpine2JetpackFX_01
p307
sbag0
(g8
g2
Ntp308
Rp309
(dp310
g12
I2
sg13
I59
sg14
(lp311
F0.07362809437932993
aF-0.01359934144035213
aF-0.9971930413066756
aF0.0
aF-0.9867503425215816
aF-0.14595178064968978
aF-0.07086661892118008
aF0.0
aF-0.14457836068275645
aF0.9891983491757724
aF-0.024165306304842035
aF0.0
aF0.69171142578125
aF0.47499799728393555
aF20.618961334228516
aF1.0
asg16
VSpineProp
p312
sbag0
(g8
g2
Ntp313
Rp314
(dp315
g12
I1
sg13
I60
sg14
(lp316
F-0.9987219104171026
aF-0.041229954740419524
aF0.02923008837398338
aF0.0
aF-0.03881884854376727
aF0.9961392028094966
aF0.0787387174380983
aF0.0
aF-0.03236363261622535
aF0.07750340854962277
aF-0.9964666064338465
aF0.0
aF0.0
aF6.110458798502805e-06
aF8.737859725952148
aF1.0
asg16
VLeftUpLeg
p317
sbag0
(g8
g2
Ntp318
Rp319
(dp320
g12
I60
sg13
I61
sg14
(lp321
F0.9969258196984366
aF-0.07835119638036796
aF6.660717826536101e-06
aF0.0
aF0.0783511963685115
aF0.9969258197195666
aF2.02314141477151e-06
aF0.0
aF-6.798757129434251e-06
aF-1.495046702904767e-06
aF0.9999999999757708
aF0.0
aF43.689327239990234
aF9.012222290039062e-05
aF0.0003070831298828125
aF1.0
asg16
VLeftLeg
p322
sbag0
(g8
g2
Ntp323
Rp324
(dp325
g12
I61
sg13
I62
sg14
(lp326
F0.992609864227663
aF0.11695582011148195
aF0.03235728016986607
aF0.0
aF-0.11132601277587593
aF0.9837673409943682
aF-0.14074167280166144
aF0.0
aF-0.04829259611936215
aF0.13609937385740303
aF0.9895174508798089
aF0.0
aF43.68929672241211
aF-7.62939453125e-06
aF-1.52587890625e-05
aF1.0
asg16
VLeftFoot
p327
sbag0
(g8
g2
Ntp328
Rp329
(dp330
g12
I62
sg13
I63
sg14
(lp331
F5.45947990881633e-06
aF0.9999999403580687
aF6.690839825306188e-06
aF0.0
aF-0.9999999403796239
aF5.459471295706618e-06
aF1.2873119576528481e-06
aF0.0
aF1.2872755058822989e-06
aF-6.6908472520606936e-06
aF0.9999999999767878
aF0.0
aF10.340982437133789
aF14.229318618774414
aF3.62396240234375e-05
aF1.0
asg16
VLeftFootToes
p332
sbag0
(g8
g2
Ntp333
Rp334
(dp335
g12
I1
sg13
I64
sg14
(lp336
F-0.998721914974406
aF-0.0412299549285574
aF-0.029229932396082858
aF0.0
aF-0.03881886082006202
aF0.9961392023026978
aF-0.07873871779739375
aF0.0
aF0.032363477255328385
aF-0.07750341496334287
aF-0.9964666109808586
aF0.0
aF0.0
aF5.527712346520275e-06
aF-8.737859725952148
aF1.0
asg16
VRightUpLeg
p337
sbag0
(g8
g2
Ntp338
Rp339
(dp340
g12
I64
sg13
I65
sg14
(lp341
F0.9969260204688835
aF-0.07834788129100405
aF6.617444505993767e-24
aF0.0
aF0.07834788129092445
aF0.9969260204678706
aF-1.4255004357087188e-06
aF0.0
aF1.1168495223106465e-07
aF1.4211186459582918e-06
aF0.9999999999989839
aF0.0
aF43.68923568725586
aF1.5974044799804688e-05
aF3.814697265625e-06
aF1.0
asg16
VRightLeg
p342
sbag0
(g8
g2
Ntp343
Rp344
(dp345
g12
I65
sg13
I66
sg14
(lp346
F0.9926097425531932
aF0.11695628318196775
aF-0.032359338879877894
aF0.0
aF-0.11132637181175777
aF0.9837678700505448
aF0.14073811422441562
aF0.0
aF0.048294281749264464
aF-0.13609556742406673
aF0.989517831910349
aF0.0
aF43.689361572265625
aF9.5367431640625e-07
aF9.5367431640625e-07
aF1.0
asg16
VRightFoot
p347
sbag0
(g8
g2
Ntp348
Rp349
(dp350
g12
I66
sg13
I67
sg14
(lp351
F9.853695445687063e-06
aF0.999999940342924
aF-2.7870347822115146e-06
aF0.0
aF-0.9999999403436837
aF9.853702412225105e-06
aF2.499618128863494e-06
aF0.0
aF2.4996457403359257e-06
aF2.7870103177090227e-06
aF0.9999999999929922
aF0.0
aF10.341054916381836
aF14.229348182678223
aF-0.00041961669921875
aF1.0
asg16
VRightFootToes
p352
sbag0
(g8
g2
Ntp353
Rp354
(dp355
g12
I1
sg13
I68
sg14
(lp356
F-0.16967007781885557
aF-0.4485838495966751
aF0.877487660639152
aF0.0
aF-0.8963283115111008
aF-0.2998688608958111
aF-0.32661020230346155
aF0.0
aF0.409643287112828
aF-0.8419330116737771
aF-0.3511996315164936
aF0.0
aF5.6109161376953125
aF12.516619682312012
aF-16.263687133789062
aF1.0
asg16
VRightWeaponProp
p357
sbag0
(g8
g2
Ntp358
Rp359
(dp360
g12
I1
sg13
I69
sg14
(lp361
F-0.07806766033266399
aF-0.2870560742729444
aF0.9547273174227233
aF0.0
aF-0.6969063943317675
aF0.7005122888050365
aF0.15363596835579943
aF0.0
aF-0.7129003562558226
aF-0.6533615717626305
aF-0.2547385691138784
aF0.0
aF-9.278144836425781
aF0.800123929977417
aF-21.85318946838379
aF1.0
asg16
VRightSwordProp
p362
sbag0
(g8
g2
Ntp363
Rp364
(dp365
g12
I1
sg13
I70
sg14
(lp366
F0.07806468812614345
aF0.28705752293504155
aF0.9547270624554856
aF0.0
aF-0.6969060248513943
aF0.7005119538867958
aF-0.15363917139691874
aF0.0
aF-0.7129010424084983
aF-0.6533612868582089
aF0.2547373796046869
aF0.0
aF-9.278144836425781
aF0.8002045750617981
aF21.853195190429688
aF1.0
asg16
VLeftSwordProp
p367
sbag0
(g8
g2
Ntp368
Rp369
(dp370
g12
I1
sg13
I71
sg14
(lp371
F0.16967075034103318
aF0.4485881549171207
aF0.877485329647604
aF0.0
aF-0.8963275738586527
aF-0.29986813232537274
aF0.32661271308243356
aF0.0
aF0.4096444812784649
aF-0.841930920719214
aF0.35120308154358204
aF0.0
aF5.610908508300781
aF12.516684532165527
aF16.263633728027344
aF1.0
asg16
VLeftWeaponProp
p372
sbasS'_anchors'
p373
(lp374
sb.