ccopy_reg
_reconstructor
p0
(c__main__
DataSkeleton
p1
c__builtin__
object
p2
Ntp3
Rp4
(dp5
S'_bones'
p6
(lp7
g0
(c__main__
DataBone
p8
g2
Ntp9
Rp10
(dp11
S'_parentId'
p12
I-1
sS'_id'
p13
I0
sS'_matrix'
p14
(lp15
F1.0
aF0.0
aF-0.0
aF0.0
aF-0.0
aF2.220446049250313e-16
aF-1.0
aF0.0
aF0.0
aF1.0
aF2.220446049250313e-16
aF0.0
aF0.0
aF0.0
aF0.0
aF1.0
asS'_name'
p16
S'Rhino_Base'
p17
sbag0
(g8
g2
Ntp18
Rp19
(dp20
g12
I0
sg13
I1
sg14
(lp21
F9.321063814127228e-07
aF8.296642179747045e-13
aF0.9999999999995657
aF0.0
aF-1.8636398503009603e-06
aF0.9999999999982634
aF9.074463793830653e-13
aF0.0
aF-0.9999999999978291
aF-1.8636398503009965e-06
aF9.321063814127228e-07
aF0.0
aF0.03583800047636032
aF0.683193027973175
aF65.45909881591797
aF1.0
asg16
VHips
p22
sbag0
(g8
g2
Ntp23
Rp24
(dp25
g12
I1
sg13
I2
sg14
(lp26
F0.9988898733535927
aF-0.047106484793466505
aF1.4305117770331558e-06
aF0.0
aF0.04710648479551059
aF0.9988898733534963
aF-1.4305117770316923e-06
aF0.0
aF-1.3615373465197157e-06
aF1.4963101090646213e-06
aF0.9999999999979536
aF0.0
aF4.650802335095264
aF-0.019097030162811057
aF-0.005093186790157141
aF1.0
asg16
VSpine
p27
sbag0
(g8
g2
Ntp28
Rp29
(dp30
g12
I2
sg13
I3
sg14
(lp31
F0.9944694998126585
aF-0.10502577751067049
aF-7.999451304493118e-07
aF0.0
aF0.10502577751184433
aF0.9944694998115644
aF1.6029402927055672e-06
aF0.0
aF6.271709832100398e-07
aF-1.6780900904087147e-06
aF0.9999999999983953
aF0.0
aF24.034382819257416
aF-0.01716501198503151
aF-2.977996897338131e-05
aF1.0
asg16
VSpine1
p32
sbag0
(g8
g2
Ntp33
Rp34
(dp35
g12
I3
sg13
I4
sg14
(lp36
F0.9978830140705318
aF0.06503453105296245
aF4.816741906475437e-07
aF0.0
aF-0.06503453105100551
aF0.9978830140652035
aF-3.334754270973574e-06
aF0.0
aF-6.975286733504184e-07
aF3.296369187995553e-06
aF0.9999999999943237
aF0.0
aF21.6238911898387
aF-0.01478214433242897
aF1.3299275659905962e-06
aF1.0
asg16
VSpine2
p37
sbag0
(g8
g2
Ntp38
Rp39
(dp40
g12
I4
sg13
I5
sg14
(lp41
F0.8353580671775609
aF0.5497061938901051
aF4.7314640685969165e-07
aF0.0
aF-0.5497061938899193
aF0.8353580671776842
aF-4.7129753619596107e-07
aF0.0
aF-6.543218427384439e-07
aF1.3361068843467235e-07
aF0.999999999999777
aF0.0
aF28.20378539840773
aF1.8419010457651988
aF8.791683921434423e-06
aF1.0
asg16
VNeck
p42
sbag0
(g8
g2
Ntp43
Rp44
(dp45
g12
I5
sg13
I6
sg14
(lp46
F0.9972083107655735
aF-0.07466983955951167
aF4.777242483388144e-07
aF0.0
aF0.0746698395595202
aF0.9972083107656873
aF0.0
aF0.0
aF-4.7639059069775685e-07
aF3.567159297715166e-08
aF0.9999999999998859
aF0.0
aF6.199935257228759
aF-0.003188932024571045
aF0.00012805684673088125
aF1.0
asg16
VNeck1
p47
sbag0
(g8
g2
Ntp48
Rp49
(dp50
g12
I6
sg13
I7
sg14
(lp51
F0.951622723375688
aF-0.30726892513729914
aF-8.751999476542844e-08
aF0.0
aF0.3072689250914134
aF0.951622723228578
aF1.755541518911458e-05
aF0.0
aF-5.310947539742623e-06
aF-1.673302418697171e-05
aF0.9999999998458998
aF0.0
aF3.576843004571572
aF4.8923868378102
aF-0.00010646506451103543
aF1.0
asg16
VHead
p52
sbag0
(g8
g2
Ntp53
Rp54
(dp55
g12
I7
sg13
I8
sg14
(lp56
F1.0
aF1.1102230244635978e-16
aF-2.964615315390051e-21
aF0.0
aF-1.1102230244635978e-16
aF1.0
aF3.3351922298138076e-21
aF0.0
aF2.964615315390051e-21
aF-3.3351922298138076e-21
aF1.0
aF0.0
aF32.186551532989796
aF8.405436478762907
aF3.733124920302089e-15
aF1.0
asg16
VHeadEnd
p57
sbag0
(g8
g2
Ntp58
Rp59
(dp60
g12
I4
sg13
I9
sg14
(lp61
F-0.15603803506786162
aF-0.027505488962751692
aF0.9873680062109979
aF0.0
aF-0.0007873846950785489
aF-0.9996084274764507
aF-0.027970908876895344
aF0.0
aF0.9877507335545254
aF-0.005141964116713716
aF0.15595527745966042
aF0.0
aF21.146703114898756
aF0.23819195771382962
aF4.217499004750895
aF1.0
asg16
VLeftClavicle
p62
sbag0
(g8
g2
Ntp63
Rp64
(dp65
g12
I9
sg13
I10
sg14
(lp66
F0.8950955849433847
aF0.02431039497546915
aF-0.4452110718647916
aF0.0
aF9.897710076409684e-05
aF0.998501657945215
aF0.05472137867589286
aF0.0
aF0.44587429172177384
aF-0.04902493015592803
aF0.8937520194129985
aF0.0
aF21.745286298011308
aF-4.579436424201333e-05
aF0.00033589457416383084
aF1.0
asg16
VLeftArm
p67
sbag0
(g8
g2
Ntp68
Rp69
(dp70
g12
I10
sg13
I11
sg14
(lp71
F0.8958419500375354
aF-0.4443728170715647
aF9.097698320730473e-07
aF0.0
aF0.4443728170705194
aF0.8958419500377796
aF1.1485744459098172e-06
aF0.0
aF-1.3254052425952187e-06
aF-6.24664188223059e-07
aF0.9999999999989265
aF0.0
aF37.9980445652009
aF-6.538994694427203e-05
aF0.0005427465700762468
aF1.0
asg16
VLeftForeArm
p72
sbag0
(g8
g2
Ntp73
Rp74
(dp75
g12
I11
sg13
I12
sg14
(lp76
F0.985963086638022
aF0.11278138851144921
aF-0.12311437849680174
aF0.0
aF-0.12336366016533297
aF-0.004792750316644723
aF-0.9923499568675432
aF0.0
aF-0.1125086625013223
aF0.9936082668485765
aF0.009187649989616298
aF0.0
aF25.75660929150174
aF0.0002854399194660573
aF-0.0007011461696890819
aF1.0
asg16
VLeftHand
p77
sbag0
(g8
g2
Ntp78
Rp79
(dp80
g12
I12
sg13
I13
sg14
(lp81
F0.9714433029544827
aF0.22619346687330583
aF0.07165489996308673
aF0.0
aF-0.23472577986712612
aF0.9602708103205985
aF0.15094296642106475
aF0.0
aF-0.03466579597607309
aF-0.16345178613296313
aF0.9859420856213054
aF0.0
aF18.983666305672045
aF-2.4864762552471973
aF-2.6863068169146587
aF1.0
asg16
VLeftHandEnd
p82
sbag0
(g8
g2
Ntp83
Rp84
(dp85
g12
I4
sg13
I14
sg14
(lp86
F-0.156035811936438
aF-0.02750522562013047
aF-0.9873683648755018
aF0.0
aF-0.0007879636852862835
aF-0.9996084322502496
aF0.027970721968310575
aF0.0
aF-0.9877510842851893
aF0.005142444728296095
aF0.1559530402257333
aF0.0
aF21.146687856111257
aF0.2382820799306593
aF-4.21748040810402
aF1.0
asg16
VRightClavicle
p87
sbag0
(g8
g2
Ntp88
Rp89
(dp90
g12
I14
sg13
I15
sg14
(lp91
F0.8950951345676355
aF0.024310054731593672
aF0.44521199592137406
aF0.0
aF9.933053827563924e-05
aF0.998501666990131
aF-0.05472121299252821
aF0.0
aF-0.445875195774323
aF0.04902491465445292
aF0.8937515692497175
aF0.0
aF21.745318038044964
aF-7.535824188664719e-05
aF-0.00027485936726634463
aF1.0
asg16
VRightArm
p92
sbag0
(g8
g2
Ntp93
Rp94
(dp95
g12
I15
sg13
I16
sg14
(lp96
F0.8958445092042543
aF-0.4443676578336736
aF-6.284309385758157e-08
aF0.0
aF0.444367657833599
aF0.8958445092041704
aF-4.69621974338644e-07
aF0.0
aF2.649824573778056e-07
aF3.927828286844249e-07
aF0.9999999999998878
aF0.0
aF37.99796102107602
aF-9.565035505965103e-05
aF-0.0003910733100980224
aF1.0
asg16
VRightForeArm
p97
sbag0
(g8
g2
Ntp98
Rp99
(dp100
g12
I16
sg13
I17
sg14
(lp101
F0.9896389883147779
aF0.11291450061595813
aF0.08868476959406105
aF0.0
aF-0.08915512303874777
aF-0.0008872563788324683
aF0.9960173576861319
aF0.0
aF0.11254348867548336
aF-0.9936043117492833
aF0.009188842690150856
aF0.0
aF25.75667743104632
aF0.00011470646896061254
aF0.0006702066403505569
aF1.0
asg16
VRightHand
p102
sbag0
(g8
g2
Ntp103
Rp104
(dp105
g12
I17
sg13
I18
sg14
(lp106
F0.9714447718438234
aF0.22618523965678422
aF-0.07166095602700923
aF0.0
aF-0.234718538722332
aF0.9602730316958417
aF-0.15094009466583158
aF0.0
aF0.034673662012469735
aF0.1634501207068388
aF0.9859420851163444
aF0.0
aF18.98351272301932
aF-2.4866305509001876
aF2.6863410486202186
aF1.0
asg16
VRightHandEnd
p107
sbag0
(g8
g2
Ntp108
Rp109
(dp110
g12
I1
sg13
I19
sg14
(lp111
F-0.994944397462822
aF-0.07886452983957111
aF0.06217742267516056
aF0.0
aF-0.0737912458635195
aF0.9940554632322351
aF0.08005365733091759
aF0.0
aF-0.06812120074728416
aF0.07506078837402226
aF-0.9948494258215255
aF0.0
aF-1.5258788153005298e-05
aF1.2397766113392272e-05
aF18.48323521117948
aF1.0
asg16
VLeftUpLeg
p112
sbag0
(g8
g2
Ntp113
Rp114
(dp115
g12
I19
sg13
I20
sg14
(lp116
F0.9999991080351824
aF-0.0013356213128127383
aF6.674455033666249e-06
aF0.0
aF0.0013356213001450802
aF0.9999991080556646
aF1.9020284334245103e-06
aF0.0
aF-6.676989470137148e-06
aF-1.8931121925722405e-06
aF0.9999999999759169
aF0.0
aF34.09908092695428
aF7.732669849147555e-05
aF0.00031660782319065106
aF1.0
asg16
VLeftLeg
p117
sbag0
(g8
g2
Ntp118
Rp119
(dp120
g12
I20
sg13
I21
sg14
(lp121
F0.9948449412723149
aF0.0751250385625622
aF0.06811586750426003
aF0.0
aF-0.07164932387679124
aF0.9960676271275031
aF-0.05211196193374524
aF0.0
aF-0.07176292366454308
aF0.04696286585760056
aF0.9963154982321403
aF0.0
aF23.255587154264457
aF1.2978530872231886e-07
aF-5.722880261771479e-05
aF1.0
asg16
VLeftFoot
p122
sbag0
(g8
g2
Ntp123
Rp124
(dp125
g12
I21
sg13
I22
sg14
(lp126
F0.002606299650062316
aF0.9999966035733647
aF6.6233524605956445e-06
aF0.0
aF-0.99999660359431
aF0.0026062996406860384
aF1.4238723893336731e-06
aF0.0
aF1.4066051121173773e-06
aF-6.627041003113713e-06
aF0.9999999999770519
aF0.0
aF7.93647428121631
aF10.73921517049389
aF2.2937303153724997e-05
aF1.0
asg16
VLeftFootToes
p127
sbag0
(g8
g2
Ntp128
Rp129
(dp130
g12
I22
sg13
I23
sg14
(lp131
F1.0
aF1.1102231290728647e-16
aF1.4860346026629445e-17
aF0.0
aF-1.1102231290728647e-16
aF1.0
aF4.108109794183274e-20
aF0.0
aF-1.4860346026629445e-17
aF-4.108109794183439e-20
aF1.0
aF0.0
aF5.0
aF-2.0539125955565396e-15
aF3.552713678800501e-15
aF1.0
asg16
VLeftFootToesEnd
p132
sbag0
(g8
g2
Ntp133
Rp134
(dp135
g12
I1
sg13
I24
sg14
(lp136
F-0.9949444492695332
aF-0.0788640006769974
aF-0.062177264855924556
aF0.0
aF-0.07379074715818125
aF0.9940555215253287
aF-0.08005339317508157
aF0.0
aF0.06812098429693014
aF-0.07506057235476814
aF-0.9948494569411956
aF0.0
aF1.5258788153005298e-05
aF2.5033950806774286e-06
aF-18.48316082458723
aF1.0
asg16
VRightUpLeg
p137
sbag0
(g8
g2
Ntp138
Rp139
(dp140
g12
I24
sg13
I25
sg14
(lp141
F0.9999991055043861
aF-0.001337531427017718
aF-3.3091248224582944e-07
aF0.0
aF0.0013375314267012948
aF0.9999991055039856
aF-9.54594175377271e-07
aF0.0
aF3.321889859555482e-07
aF9.541507156524766e-07
aF0.9999999999994896
aF0.0
aF34.09901582688211
aF-1.613338006212217e-05
aF4.197369630531966e-05
aF1.0
asg16
VRightLeg
p142
sbag0
(g8
g2
Ntp143
Rp144
(dp145
g12
I25
sg13
I26
sg14
(lp146
F0.9948444677242373
aF0.07513078985156021
aF-0.06811644041462932
aF0.0
aF-0.07165531156125815
aF0.9960673826044285
aF0.05210840274487374
aF0.0
aF0.0717635099722559
aF-0.04695885143232995
aF0.9963156452192339
aF0.0
aF23.255643509787305
aF1.180673314626901e-05
aF0.00014115212514909103
aF1.0
asg16
VRightFoot
p147
sbag0
(g8
g2
Ntp148
Rp149
(dp150
g12
I26
sg13
I27
sg14
(lp151
F0.002610028062950076
aF0.9999965938655733
aF-3.2806036979252164e-06
aF0.0
aF-0.9999965938673836
aF0.0026100280716938595
aF2.6638483567844087e-06
aF0.0
aF2.6724017511025004e-06
aF3.273639804787308e-06
aF0.9999999999910708
aF0.0
aF7.936549297253561
aF10.739252139911159
aF-0.0004941461726239993
aF1.0
asg16
VRightFootToes
p152
sbag0
(g8
g2
Ntp153
Rp154
(dp155
g12
I27
sg13
I28
sg14
(lp156
F1.0
aF4.298572492308987e-24
aF3.2534535504037676e-18
aF0.0
aF-4.298572492308918e-24
aF1.0
aF-2.1175823681357508e-20
aF0.0
aF-3.2534535504037676e-18
aF2.1175823681357508e-20
aF1.0
aF0.0
aF5.0
aF-2.275957200481571e-15
aF1.0658141036401503e-14
aF1.0
asg16
VRightFootToesEnd
p157
sbasS'_anchors'
p158
(lp159
g0
(g8
g2
Ntp160
Rp161
(dp162
g12
I1
sg13
I0
sg14
(lp163
F2.0837408183371764e-06
aF-5.551115123125783e-17
aF-0.9999999999978291
aF0.0
aF0.9999999999978291
aF9.07718344933528e-13
aF2.0837408183371764e-06
aF0.0
aF9.076628337822969e-13
aF-1.0000000000000002
aF0.0
aF0.0
aF-13.150721679549719
aF-0.7020453881732888
aF0.03582705096460253
aF1.0
asg16
S'anchor'
p164
sbag0
(g8
g2
Ntp165
Rp166
(dp167
g12
I1
sg13
I1
sg14
(lp168
F2.0837408183371764e-06
aF-5.551115123125783e-17
aF-0.9999999999978291
aF0.0
aF0.9999999999978291
aF9.07718344933528e-13
aF2.0837408183371764e-06
aF0.0
aF9.076628337822969e-13
aF-1.0000000000000002
aF0.0
aF0.0
aF2.1280371650999825
aF-29.55666718526436
aF12.55374219806707
aF1.0
asg16
g164
sbag0
(g8
g2
Ntp169
Rp170
(dp171
g12
I1
sg13
I2
sg14
(lp172
F2.0837408183371764e-06
aF-5.551115123125783e-17
aF0.9999999999978291
aF0.0
aF0.9999999999978291
aF9.07718344933528e-13
aF-2.0837408183371764e-06
aF0.0
aF-9.076628337822969e-13
aF1.0000000000000002
aF0.0
aF0.0
aF2.128060501030376
aF-29.556713842781864
aF-12.481952063925824
aF1.0
asg16
g164
sbag0
(g8
g2
Ntp173
Rp174
(dp175
g12
I2
sg13
I3
sg14
(lp176
F5.651036122378272e-07
aF5.551115123125783e-17
aF-0.9999999999998403
aF0.0
aF0.9988898733543823
aF0.047106484795066975
aF5.644762757217593e-07
aF0.0
aF0.047106484795059536
aF-0.9988898733545418
aF2.6620044613068223e-08
aF0.0
aF2.7748989019718096
aF26.828587769864463
aF0.04092402889712908
aF1.0
asg16
g164
sbag0
(g8
g2
Ntp177
Rp178
(dp179
g12
I2
sg13
I4
sg14
(lp180
F5.651036122378272e-07
aF5.551115123125783e-17
aF-0.9999999999998403
aF0.0
aF0.9988898733543823
aF0.047106484795066975
aF5.644762757217593e-07
aF0.0
aF0.047106484795059536
aF-0.9988898733545418
aF2.6620044613068223e-08
aF0.0
aF5.347100737091537
aF-1.86851548151862
aF32.142390852130525
aF1.0
asg16
g164
sbag0
(g8
g2
Ntp181
Rp182
(dp183
g12
I2
sg13
I5
sg14
(lp184
F5.651036127929387e-07
aF0.0
aF0.9999999999998401
aF0.0
aF0.9988898733543821
aF0.0471064847950672
aF-5.644762760548261e-07
aF0.0
aF-0.04710648479505952
aF0.9988898733545416
aF2.662004494613513e-08
aF0.0
aF5.347074307921773
aF-1.8685403377370733
aF-32.06052269179167
aF1.0
asg16
g164
sbag0
(g8
g2
Ntp185
Rp186
(dp187
g12
I4
sg13
I6
sg14
(lp188
F1.2929065851263744e-06
aF0.0
aF-0.9999999999991642
aF0.0
aF0.9961949751666944
aF0.08715257569900248
aF1.2879870435189569e-06
aF0.0
aF0.08715257569892973
aF-0.9961949751675272
aF1.1268013899723431e-07
aF0.0
aF-3.877787641695136
aF29.778667579904788
aF19.05944874969128
aF1.0
asg16
g164
sbag0
(g8
g2
Ntp189
Rp190
(dp191
g12
I4
sg13
I7
sg14
(lp192
F1.2929065851263744e-06
aF0.0
aF0.9999999999991642
aF0.0
aF0.9961949751666944
aF0.08715257569900248
aF-1.2879870435189569e-06
aF0.0
aF-0.08715257569892973
aF0.9961949751675272
aF1.1268013899723431e-07
aF0.0
aF-3.877794619648313
aF29.778716260481392
aF-18.977444152356856
aF1.0
asg16
g164
sbag0
(g8
g2
Ntp193
Rp194
(dp195
g12
I7
sg13
I8
sg14
(lp196
F-9.15188416827917e-07
aF-1.6153251066131084e-05
aF-0.9999999998691177
aF0.0
aF0.9942072470742203
aF-0.10747999750845505
aF8.26264427988832e-07
aF0.0
aF-0.10747999750773485
aF-0.9942072469433397
aF1.615804372256946e-05
aF0.0
aF9.583285282737762
aF42.0299592128518
aF0.040249220992845315
aF1.0
asg16
g164
sbag0
(g8
g2
Ntp197
Rp198
(dp199
g12
I7
sg13
I9
sg14
(lp200
F-9.15188416827917e-07
aF-1.6153251066131084e-05
aF-0.9999999998691177
aF0.0
aF0.9942072470742203
aF-0.10747999750845505
aF8.26264427988832e-07
aF0.0
aF-0.10747999750773485
aF-0.9942072469433397
aF1.615804372256946e-05
aF0.0
aF-0.8663954538784253
aF42.68211144195444
aF0.040248250040924645
aF1.0
asg16
g164
sbag0
(g8
g2
Ntp201
Rp202
(dp203
g12
I7
sg13
I10
sg14
(lp204
F-9.15188416827917e-07
aF-1.6153251066131084e-05
aF-0.9999999998691177
aF0.0
aF0.9942072470742203
aF-0.10747999750845505
aF8.26264427988832e-07
aF0.0
aF-0.10747999750773485
aF-0.9942072469433397
aF1.615804372256946e-05
aF0.0
aF-6.225549139126514
aF33.207979578564874
aF0.04040619270694529
aF1.0
asg16
g164
sbag0
(g8
g2
Ntp205
Rp206
(dp207
g12
I7
sg13
I11
sg14
(lp208
F-9.15188416827917e-07
aF-1.6153251066131084e-05
aF-0.9999999998691177
aF0.0
aF0.9942072470742203
aF-0.10747999750845505
aF8.26264427988832e-07
aF0.0
aF-0.10747999750773485
aF-0.9942072469433397
aF1.615804372256946e-05
aF0.0
aF0.46762638553033753
aF6.717181215295799
aF15.584009004338231
aF1.0
asg16
g164
sbag0
(g8
g2
Ntp209
Rp210
(dp211
g12
I7
sg13
I12
sg14
(lp212
F-9.15188416827917e-07
aF-1.6153251066131084e-05
aF-0.9999999998691177
aF0.0
aF0.9942072470742203
aF-0.10747999750845505
aF8.26264427988832e-07
aF0.0
aF-0.10747999750773485
aF-0.9942072469433397
aF1.615804372256946e-05
aF0.0
aF30.276840456040475
aF4.578971256434581
aF10.224810826060514
aF1.0
asg16
g164
sbag0
(g8
g2
Ntp213
Rp214
(dp215
g12
I7
sg13
I13
sg14
(lp216
F-9.15188416827917e-07
aF-1.6153251066131084e-05
aF-0.9999999998691177
aF0.0
aF0.9942072470742203
aF-0.10747999750845505
aF8.26264427988832e-07
aF0.0
aF-0.10747999750773485
aF-0.9942072469433397
aF1.615804372256946e-05
aF0.0
aF13.64650682100094
aF22.26520978093715
aF7.6532965550596
aF1.0
asg16
g164
sbag0
(g8
g2
Ntp217
Rp218
(dp219
g12
I7
sg13
I14
sg14
(lp220
F9.151884167168946e-07
aF1.6153251066408643e-05
aF0.9999999998691178
aF0.0
aF0.9942072470745171
aF-0.1074799975057108
aF8.262644279888323e-07
aF0.0
aF0.10747999750499046
aF0.9942072469436366
aF-1.615804372301355e-05
aF0.0
aF0.4675979356518667
aF6.71667906948495
aF-15.502353036786516
aF1.0
asg16
g164
sbag0
(g8
g2
Ntp221
Rp222
(dp223
g12
I7
sg13
I15
sg14
(lp224
F9.151884167168946e-07
aF1.6153251066408643e-05
aF0.9999999998691178
aF0.0
aF0.9942072470745171
aF-0.1074799975057108
aF8.262644279888323e-07
aF0.0
aF0.10747999750499046
aF0.9942072469436366
aF-1.615804372301355e-05
aF0.0
aF30.276821815527512
aF4.578642247805565
aF-10.143140345324772
aF1.0
asg16
g164
sbag0
(g8
g2
Ntp225
Rp226
(dp227
g12
I7
sg13
I16
sg14
(lp228
F9.151884167168946e-07
aF1.6153251066408643e-05
aF0.9999999998691178
aF0.0
aF0.9942072470745171
aF-0.1074799975057108
aF8.262644279888323e-07
aF0.0
aF0.10747999750499046
aF0.9942072469436366
aF-1.615804372301355e-05
aF0.0
aF13.646492886833045
aF22.264963840201446
aF-7.572167016395238
aF1.0
asg16
g164
sbag0
(g8
g2
Ntp229
Rp230
(dp231
g12
I9
sg13
I17
sg14
(lp232
F-0.9873680127868648
aF0.027969629697196883
aF-0.15595546524542986
aF0.0
aF-0.15784155099313527
aF-0.08790283582976753
aF0.9835441709619176
aF0.0
aF0.013800438594417307
aF0.9957363060909681
aF0.09120721806367692
aF0.0
aF25.12372339836555
aF-2.4584305148583683
aF18.13508310972395
aF1.0
asg16
g164
sbag0
(g8
g2
Ntp233
Rp234
(dp235
g12
I14
sg13
I18
sg14
(lp236
F-0.9873683582979136
aF0.027972001147861796
aF0.1559528524390238
aF0.0
aF-0.15783917274066006
aF-0.08790341701678739
aF-0.9835445006837855
aF0.0
aF-0.013802919279195029
aF-0.995736188168612
aF0.09120813006972119
aF0.0
aF25.043001957176163
aF-2.456012225597946
aF-18.12209485296154
aF1.0
asg16
g164
sbag0
(g8
g2
Ntp237
Rp238
(dp239
g12
I19
sg13
I19
sg14
(lp240
F-0.062178203093967474
aF-0.08005557867340957
aF0.9948492224368829
aF0.0
aF-0.9949443395064888
aF-0.07379117124405864
aF-0.06812212805268503
aF0.0
aF0.07886464571658038
aF-0.994055314039262
aF-0.07506264241487082
aF0.0
aF11.237749784125349
aF17.00299418824405
aF-0.6233796912704186
aF1.0
asg16
g164
sbag0
(g8
g2
Ntp241
Rp242
(dp243
g12
I19
sg13
I20
sg14
(lp244
F-0.062178203093967474
aF-0.08005557867340957
aF0.9948492224368829
aF0.0
aF-0.9949443395064888
aF-0.07379117124405864
aF-0.06812212805268503
aF0.0
aF0.07886464571658038
aF-0.994055314039262
aF-0.07506264241487082
aF0.0
aF13.539355615560972
aF0.6146919648689919
aF-15.214613782140518
aF1.0
asg16
g164
sbag0
(g8
g2
Ntp245
Rp246
(dp247
g12
I24
sg13
I21
sg14
(lp248
F-0.06217648443581392
aF-0.08005147183259788
aF-0.994849660320914
aF0.0
aF-0.9949445072249977
aF-0.07379082177552675
aF0.06812005699130513
aF0.0
aF-0.07886388480165807
aF0.9940556707142347
aF-0.07505871831348808
aF0.0
aF11.233308204464393
aF16.997193793941975
aF0.5522410501541408
aF1.0
asg16
g164
sbag0
(g8
g2
Ntp249
Rp250
(dp251
g12
I24
sg13
I22
sg14
(lp252
F-0.06217648443581392
aF-0.08005147183259788
aF-0.994849660320914
aF0.0
aF-0.9949445072249977
aF-0.07379082177552675
aF0.06812005699130513
aF0.0
aF-0.07886388480165807
aF0.9940556707142347
aF-0.07505871831348808
aF0.0
aF13.534877743653027
aF0.608830459459115
aF15.143412227815137
aF1.0
asg16
g164
sbasb.